
myProj.elf:     file format elf32-avr

Sections:
Idx Name          Size      VMA       LMA       File off  Algn
  0 .text         00007fb8  00000000  00000000  00000094  2**1
                  CONTENTS, ALLOC, LOAD, READONLY, CODE
  1 .data         00000036  00800060  00007fb8  0000804c  2**0
                  CONTENTS, ALLOC, LOAD, DATA
  2 .bss          0000004a  00800096  00800096  00008082  2**0
                  ALLOC
  3 .stab         00001dd0  00000000  00000000  00008084  2**2
                  CONTENTS, READONLY, DEBUGGING
  4 .stabstr      00000fa2  00000000  00000000  00009e54  2**0
                  CONTENTS, READONLY, DEBUGGING
  5 .debug_aranges 00000140  00000000  00000000  0000adf6  2**0
                  CONTENTS, READONLY, DEBUGGING
  6 .debug_pubnames 00000170  00000000  00000000  0000af36  2**0
                  CONTENTS, READONLY, DEBUGGING
  7 .debug_info   00001c49  00000000  00000000  0000b0a6  2**0
                  CONTENTS, READONLY, DEBUGGING
  8 .debug_abbrev 00000eeb  00000000  00000000  0000ccef  2**0
                  CONTENTS, READONLY, DEBUGGING
  9 .debug_line   00000dad  00000000  00000000  0000dbda  2**0
                  CONTENTS, READONLY, DEBUGGING
 10 .debug_frame  00000160  00000000  00000000  0000e988  2**2
                  CONTENTS, READONLY, DEBUGGING
 11 .debug_str    0000028d  00000000  00000000  0000eae8  2**0
                  CONTENTS, READONLY, DEBUGGING
 12 .debug_loc    000007ce  00000000  00000000  0000ed75  2**0
                  CONTENTS, READONLY, DEBUGGING
 13 .debug_ranges 00000050  00000000  00000000  0000f543  2**0
                  CONTENTS, READONLY, DEBUGGING

Disassembly of section .text:

00000000 <__vectors>:
       0:	0c 94 83 2f 	jmp	0x5f06	; 0x5f06 <__ctors_end>
       4:	0c 94 a0 2f 	jmp	0x5f40	; 0x5f40 <__bad_interrupt>
       8:	0c 94 a0 2f 	jmp	0x5f40	; 0x5f40 <__bad_interrupt>
       c:	0c 94 a0 2f 	jmp	0x5f40	; 0x5f40 <__bad_interrupt>
      10:	0c 94 a0 2f 	jmp	0x5f40	; 0x5f40 <__bad_interrupt>
      14:	0c 94 25 3d 	jmp	0x7a4a	; 0x7a4a <__vector_5>
      18:	0c 94 a0 2f 	jmp	0x5f40	; 0x5f40 <__bad_interrupt>
      1c:	0c 94 a0 2f 	jmp	0x5f40	; 0x5f40 <__bad_interrupt>
      20:	0c 94 a0 2f 	jmp	0x5f40	; 0x5f40 <__bad_interrupt>
      24:	0c 94 a0 2f 	jmp	0x5f40	; 0x5f40 <__bad_interrupt>
      28:	0c 94 a0 2f 	jmp	0x5f40	; 0x5f40 <__bad_interrupt>
      2c:	0c 94 a0 2f 	jmp	0x5f40	; 0x5f40 <__bad_interrupt>
      30:	0c 94 a0 2f 	jmp	0x5f40	; 0x5f40 <__bad_interrupt>
      34:	0c 94 a0 2f 	jmp	0x5f40	; 0x5f40 <__bad_interrupt>
      38:	0c 94 a0 2f 	jmp	0x5f40	; 0x5f40 <__bad_interrupt>
      3c:	0c 94 a0 2f 	jmp	0x5f40	; 0x5f40 <__bad_interrupt>
      40:	0c 94 a0 2f 	jmp	0x5f40	; 0x5f40 <__bad_interrupt>
      44:	0c 94 a0 2f 	jmp	0x5f40	; 0x5f40 <__bad_interrupt>
      48:	0c 94 a0 2f 	jmp	0x5f40	; 0x5f40 <__bad_interrupt>
      4c:	0c 94 a0 2f 	jmp	0x5f40	; 0x5f40 <__bad_interrupt>
      50:	0c 94 a0 2f 	jmp	0x5f40	; 0x5f40 <__bad_interrupt>

00000054 <shokran_samples>:
      54:	82 81 7d 81 84 7f 7b 87 8a 73 7a 91 7f 6f 85 8a     ..}...{..sz..o..
      64:	76 7d 88 77 7b 8a 7a 74 8a 89 74 81 8a 80 7a 7b     v}.w{.zt..t...z{
      74:	89 81 78 82 7f 80 81 7a 82 81 7e 7b 80 86 7c 82     ..x....z..复锋赴覆贩父锋返糕峰凡复腹饭封腹蜂鳟醍虍勾覆赴饭腹丰返傅赋蜂丰父覆范副封阜醍霎岽赋跺父告锋范赴告饭返副蜂覆饭贩复町霎醍鳟獯枫峰副繁副勾返朵沟稿垛锋共丰返傅癞蹴氘醍愦覆封返付勾斗犯岢范陡羔傅烦钒覆父醍瑛鲨箴浯赴峰赴阜蜂副赴钒拱羔斗复钩枫犯峰甬绠宕犯蜂峰跺副拱丰丰父父犯阜贡跺饭苟町铢娲锋躲傅苟饭钒赋羔蜂范枫蜂赋峰贩副飚甬鳇鳟卑春副羔锋舵父阜贩丰赋镐丰凡羔阜封贩锂鼹虍北春赋傅蜂峰封腹付范副赋赴赋贩锋共赋霎鳟辈春抖返苟锋豆覆搞赋赴烦枫构父侗蜂规骢楫簏猃背春副跺丰复镐贩侗赋岢峰典复狗峰凡繁铤麽莓蝰贝春阜广范冻拱广丰垛锋共傅跺繁羔告犯鲢氘铖钡春躲犯稿父斗烦钩付犯蜂锋父糕饭犯告禅珞倍春贡复烦贩狗勾垛朵沟构范跺付垢傅豆篦腠鲱狈春凡勾沟陡栋赋阜豆倒抖枫丰点靛覆父虍栲橘纥苻备春舵跺覆垢共赴沟徭岬广岱徙徨岣瑰逛镱惫春岜垢副范范垛荡炊锤炊炽炽虫闯村捣鲻朐迫萍伎梦贬春碘陡枫付腹垢峁徜徜獬愠汊汜沐惴獾坭扁春獗岽糕锋丰陡存锤捶翅叉翅冲炽粹滇柘惹函壕妓便春侗舵覆赋锋付羔阜告垢贯後忖愠沐浞犸变春洳愣怃徕逛沟复抖村炽补辨辨卜哺蹭嫖缉Ж卞春斥蛋斗封复赋父告共沟瑰岬獗愦浞宸恍琨辨春灞浔愕忉徕岵沟犯典锤巢膊舶便备脖萑并舶春吵炊倒跺丰锋复付腹钩广光岫忏浯甯称兕脖春邋灏沔忮後岜岜贡夺瘁潮渤泊补驳册晔保ぉオ膊春炒彻淬跺副锋赴丰范锋镐狗峁忏沣灞垂填霎渤春宕宀涞忏岱岚逛腹跺存巢膊哺巢冲吹钕并ú九泊春冲充蛋豆封搞糕锋范饭付岵怃愎浯沅窘虚鳄驳春愦愠忖徕岜苟锋豆蹈淬闯窗窗捶淬锤樨堂览翘捕春粹荡侗舵峰副赴覆赋镐岵怃浔涓愎惆嗽犸卜春獬瑰勾勾稿犯恫村炊幢垂捣栋蹈存存馕屏勺嘭舷哺春党冻丰付锋枫犯蜂钩舛涓宄涑惆獠逛鱼补春钩狗狗覆洞瘁虫斥闯刀洞洞碘倒党典涫炕弥滗圪虞册春烦傅傅傅覆封锋沟怃溷涓汜怄逛阜糕螽测春垢狗副恫床蹭层创恫繁反朵蹈党斗蜂饴拟耵碡隅层春羔共钩傅犯蜂构忖浒沐愎獾狗腹羔钩蹭春贡覆兜虫哺层车存跺封繁侗点恫贩糕蹇ì迪铥襻茆鳟插春逛岚垢羔付贡徙愦汜愀夤广付覆赴覆叉春赴繁挡掣潮潮炊兜枫副封垛恫兜贩镐褚副逼妩脞鬻嘲春贯逛苟糕腹苟岫怃惴怄徕苟付饭返饭貔潮春范洞档创充创刀垛枫付赋范朵钒反副鲣漳侥蛛鲰痿巢春糕钩共贡勾垢岣舛忖舛徕逛付贩范繁黯吵春洞靛荡粹瘁档侗跺枫覆峰犯犯返范枫滢运收犷貊炒春赋傅付羔告勾岚徨獯獯徨岢共赋饭舵车春兜栋碘捣点兜跺返锋复锋封丰返钒朵遴圩苠铛躔扯春陡豆躲凡峰羔构岢岱徜徨後岢贯钩父栝祢撤春峰返豆栋碘碘兜烦赋糕稿搞覆封范烦蹰噗坼螽鲶掣春返贩贩反朵豆豆垛返赋共瑰岢岜贯拱貅黥黹殡醍彻春阜赴覆阜阜阜覆丰钒豆夺舵范峰覆阜痖觑鳋翅春父付复锋蜂蜂蜂赴赋覆封反繁躲钒封赳祓斥春复搞告告腹覆覆覆阜稿贡告傅犯垛恫脞炽春兜钒赴告沟钩羔峰返凡贩副腹糕付蜂屦躜鳟充春烦朵舵返蜂傅阜阜赋封返繁繁返枫复箜秕躐聃冲春腹搞搞父付复付羔稿钩贡羔赴返跺跺躅虫春返副糕拱搞赴返躲垛舵犯赴复副封贩醍蹯腼窗春贩封复镐钩贡羔赴范钒朵跺凡贩封锋鼷鲳眍蝼幢春赋父糕稿告告告稿搞父覆枫范凡烦饭鲵簌床春赴阜糕羔傅蜂范烦反犯枫蜂枫犯返范鲶豇貊闯春封赋腹镐镐父覆封贩范贩丰峰覆复付黯鼹创春付付付阜阜付傅赋赴蜂丰贩范贩封副黯鼷吹春傅付赋峰丰贩贩丰蜂赴赴赴锋赴副复鼢炊春阜腹羔父傅副蜂丰丰封蜂峰锋锋锋峰捶春蜂蜂蜂蜂峰峰峰蜂封封枫峰赴覆赋复{{|....
     484:	83 82 81 81 81 81 80 80 80 80 7f 80 81 82 82 81     ................
     494:	80 7d 7b 7b 7b 7c 7c 7c 7d 7e 7f 81 82 83 83 83     .}{{{|||}......
     4a4:	82 81 81 80 80 81 81 81 81 80 80 7f 7f 7e 7e 7e     .............~     4b4:	7d 7d 7d 7e 7f 7f 7f 7f 7f 80 81 81 82 81 80 7f     }}}............
     4c4:	7f 7f 80 80 80 80 7f 7e 7e 7f 80 81 81 81 7f 7e     .......~......     4d4:	7d 7d 7e 7f 7f 80 80 7f 7f 80 81 83 83 83 82 81     }}.............
     4e4:	80 81 81 82 82 81 80 7f 7e 7e 7e 7e 7d 7c 7a 79     ........~~}|zy
     4f4:	7a 7b 7d 7e 7f 7f 7f 7f 80 81 81 82 83 83 83 83     z{}............
     504:	83 84 84 84 84 83 82 81 81 80 80 7f 7f 7d 7c 7a     .............}|z
     514:	7a 7a 7a 7a 7a 7a 7b 7b 7b 7c 7d 7e 7f 80 81 82     zzzzzz{{{|}....
     524:	83 84 84 85 85 86 86 86 87 86 85 83 81 7f 7e 7e     ..............~
     534:	7e 7e 7d 7c 7b 7a 79 79 79 79 79 7a 7a 7b 7c 7d     ~}|{zyyyyyzz{|}
     544:	7f 80 82 83 84 84 83 83 83 85 86 86 85 84 82 81     ................
     554:	80 80 80 7f 7e 7d 7d 7c 7c 7b 7a 7a 7a 7b 7d 7e     ....}}||{zzz{}     564:	7f 80 80 81 81 81 82 83 84 85 85 83 82 81 81 81     ................
     574:	81 81 80 7f 7e 7d 7d 7d 7c 7c 7b 7b 7b 7c 7d 7e     ....}}}||{{{|}     584:	7f 80 81 81 80 80 81 81 83 83 83 82 80 7f 80 82     ................
     594:	84 84 81 7e 7c 7c 7e 81 81 80 7d 7a 79 7b 7e 80     ...||...}zy{.
     5a4:	82 83 82 80 7e 7c 7b 77 7c 85 87 8a 89 80 7a 75     ....|{w|.....zu
     5b4:	75 7d 83 89 89 80 79 76 7b 80 7e 83 81 76 7b 86     u}....yv{...v{.
     5c4:	89 8a 85 7d 72 71 7f 8d 98 96 8c 76 6a 6c 69 74     ...}rq.....vjlit
     5d4:	86 89 89 87 7c 74 6c 67 73 85 91 9c 9d 8b 77 6b     ....|tlgs.....wk
     5e4:	69 79 8b 93 97 96 83 73 69 63 70 81 88 8f 89 77     iy.....sicp....w
     5f4:	78 7f 7f 83 81 72 71 78 80 97 a4 97 85 69 54 62     x....rqx.....iTb
     604:	77 8c a0 95 7c 74 69 6e 89 8b 8c 99 89 86 8b 7c     w...|tin.......|
     614:	7c 6e 59 63 70 84 99 99 8c 78 6a 6a 7f 99 9c 9b     |nYcp....xjj....
     624:	93 7b 72 72 76 7f 7c 73 76 7c 83 8c 8d 78 67 63     .{rrv.|sv|...xgc
     634:	67 80 97 99 9d 96 7d 6d 70 77 83 92 9a 98 8d 7e     g.....}mpw.....     644:	70 69 69 69 70 85 91 88 84 7e 6d 6b 79 7d 7e 8b     piiip....mky}.
     654:	8a 7f 83 81 71 75 83 7e 82 93 93 92 97 8d 80 82     ....qu.........
     664:	83 84 89 89 82 7d 7d 7b 70 65 5b 57 67 7b 7c 73     .....}}{pe[Wg{|s
     674:	6e 5a 57 75 85 97 aa a3 93 99 a9 ad b4 bf a8 8b     nZWu............
     684:	87 85 81 7d 72 61 5a 5f 60 5b 57 51 47 53 69 72     ...}raZ_`[WQGSir
     694:	6e 6a 66 6b 7b 88 97 a7 b2 b1 ad bd cb c5 c3 b6     njfk{...........
     6a4:	97 7e 75 6f 6b 69 5b 46 43 50 55 5b 68 6e 70 7b     .uoki[FCPU[hnp{
     6b4:	83 7c 74 70 69 6a 70 6e 70 76 7d 8a 9f b8 cc d5     .|tpijpnpv}.....
     6c4:	d8 d3 c3 ae 9d 91 82 6a 59 4a 3b 38 3f 47 51 60     .......jYJ;8?GQ`
     6d4:	6c 73 7f 86 7f 7e 7e 71 65 6a 6a 6c 7a 7f 96 af     ls...~qejjlz...
     6e4:	b2 c8 cf c8 c7 b6 ab a0 8b 78 63 5b 4e 41 47 4d     .........xc[NAGM
     6f4:	55 5f 69 75 7d 86 88 8d 8e 77 6c 6a 64 64 64 6f     U_iu}....wljdddo
     704:	74 75 81 91 9f aa b6 bc bc bb af a7 a4 94 89 7d     tu.............}
     714:	70 63 55 52 4f 4f 5b 62 67 71 72 6b 69 65 62 69     pcUROO[bgqrkiebi
     724:	73 74 7a 83 80 82 8b 98 a9 b8 c5 d1 da c5 b1 a7     stz.............
     734:	90 82 76 66 5e 4f 41 3a 46 54 54 67 76 73 79 7c     ..vf^OA:FTTgvsy|
     744:	78 76 72 6c 6c 70 70 74 7a 7b 85 97 ab c1 cd db     xvrllpptz{......
     754:	e8 d5 bb ac 8e 77 6b 5c 52 48 3a 34 47 5b 5d 6b     .....wk\RH:4G[]k
     764:	7c 7c 7f 80 7b 76 6a 5a 59 5f 5d 62 70 7e 8c a4     ||..{vjZY_]bp..
     774:	bd d2 e4 eb f1 dc be ac 84 70 61 4b 46 3e 36 35     .........paKF>65
     784:	4c 64 68 79 83 82 88 84 7e 77 64 4d 47 50 52 5d     Ldhy....wdMGPR]
     794:	6f 7e 95 b1 cb e1 ea ed ee d6 b9 9f 78 6c 5b 4a     o..........xl[J
     7a4:	49 40 38 38 52 6a 6d 79 7c 81 8b 85 7b 6d 60 50     I@88Rjmy|...{m`P
     7b4:	4f 5d 5f 68 76 84 9d b0 c3 d0 d3 da e3 cf af 98     O]_hv...........
     7c4:	79 6c 66 58 53 4e 47 47 54 68 6c 6d 71 78 85 83     ylfXSNGGThlmqx..
     7d4:	7a 71 64 5a 59 69 76 77 7e 88 92 9e a1 ab b6 b8     zqdZYivw.......
     7e4:	c0 c4 b6 9d 8a 7e 78 7b 73 65 62 5b 59 5d 61 63     .....x{seb[Y]ac
     7f4:	66 71 78 7f 83 77 71 71 66 65 6e 70 76 7d 78 7b     fqx..wqqfenpv}x{
     804:	81 85 99 b0 ba bd cd c8 a7 9e 93 83 83 73 65 5d     .............se]
     814:	55 4e 4e 5e 66 72 80 82 91 95 86 7b 6d 5e 4e 4c     UNN^fr.....{m^NL
     824:	56 5f 69 69 6e 81 95 b4 d2 e2 e5 e2 d0 a8 98 76     V_iin..........v
     834:	5d 58 46 4c 50 4c 4f 69 8b 93 9a 95 95 a2 8d 71     ]XFLPLOi.......q
     844:	58 41 2a 22 3e 58 6d 74 7a 9e c3 db e6 e3 e0 e5     XA*">Xmtz.......
     854:	bb 8f 7c 56 45 34 3d 59 5a 59 71 a4 b2 a0 8c 7f     ..|VE4=YZYq.....
     864:	8a 82 63 53 48 31 1b 30 59 78 80 7f a3 d2 e7 df     ..cSH1.0Yx......
     874:	d4 d6 de a9 7a 6b 50 44 36 4b 6b 69 65 80 b3 be     ....zkPD6Kkie...
     884:	a1 79 61 67 62 59 5e 56 3b 2b 44 6d 82 7c 79 9e     .yagbY^V;+Dm.|y.
     894:	ce e1 dc d5 df c4 79 60 4d 42 3a 42 6f 7f 7c 84     ......y`MB:Bo.|.
     8a4:	ac c2 af 86 5a 4d 49 49 62 70 5c 3c 36 58 7c 80     ....ZMIIbp\<6X|.
     8b4:	73 80 a6 d0 de d9 dd df 98 55 4b 38 37 39 58 86     s........UK879X.
     8c4:	90 99 b0 cd c5 9f 70 4a 3f 3c 4c 6c 6d 53 3f 49     ......pJ?<LlmS?I
     8d4:	67 7a 77 78 8c ad d0 dd d8 de cd 78 46 3a 2b 3b     gzwx.......xF:+;
     8e4:	4e 78 99 9e ac c5 d8 c2 97 5f 3b 38 41 5f 79 6a     Nx......._;8A_yj
     8f4:	4c 3b 47 68 7a 7a 7e 8e ad d3 dd d7 e0 b4 58 39     L;Ghzz.......X9
     904:	2b 2d 46 60 91 a4 a5 b7 cf d7 bb 89 50 38 38 4e     +-F`........P88N
     914:	76 84 6b 4c 3b 48 66 76 7d 82 8d ae d6 e0 db dd     v.kL;Hfv}.......
     924:	9f 48 2e 22 31 4d 6c 9a a3 a0 ae c6 cd b4 7e 4a     .H."1Ml.......J
     934:	37 3b 5e 8c 96 74 4c 3a 47 64 77 83 85 8a a6 d3     7;^..tL:Gdw.....
     944:	e4 df d9 94 46 2f 24 37 54 73 96 95 92 a4 ba c2     ....F/$7Ts......
     954:	ad 7a 4c 3d 47 72 9d 9d 78 4c 36 43 61 7a 88 87     .zL=Gr..xL6Caz..
     964:	8c a5 cc df d9 d3 94 47 33 31 41 5a 79 94 89 80     .......G31AZy...
     974:	8e aa b9 a8 80 5b 4a 51 77 a0 a1 78 48 31 41 61     .....[JQw..xH1Aa
     984:	7f 8e 8e 90 a0 c2 d3 ca c7 98 52 41 46 4b 5d 74     ..........RAFK]t
     994:	89 7f 6f 7e a0 b5 af 91 6a 55 59 76 97 9b 76 48     ..o....jUYv..vH
     9a4:	2e 3c 5f 7b 8d 92 97 a2 bd cc c1 c0 a8 68 4d 53     .<_{.........hMS
     9b4:	4d 56 6d 88 84 6b 70 8b a4 a9 9b 7d 66 62 77 94     MVm..kp....}fbw.
     9c4:	99 77 42 21 2b 56 7c 95 9d 9e 9e ac c3 c6 c0 b8     .wB!+V|.........
     9d4:	98 65 5b 55 49 57 70 85 76 68 75 8f 9e 9d 90 78     .e[UIWp.vhu....x
     9e4:	6d 70 88 9a 88 53 27 20 39 68 8e a3 a8 a4 a4 b2     mp...S' 9h......
     9f4:	be c3 bc bc 9f 6d 63 4f 42 4d 6b 7d 6c 66 7b 9a     .....mcOBMk}lf{.
     a04:	a3 9d 8b 74 6a 72 8a 96 7b 42 21 23 46 78 9d ae     ...tjr..{B!#Fx..
     a14:	b0 a7 a3 aa b3 bc c0 c7 a2 70 5d 46 3b 4a 6d 79     .........p]F;Jmy
     a24:	67 67 84 a4 a6 96 80 6b 67 78 8d 90 6a 34 1b 2a     gg.....kgx..j4.*
     a34:	59 88 a6 b0 b0 a5 a4 aa b2 bb c2 c6 9b 6d 5b 46     Y............m[F
     a44:	40 54 75 7c 68 67 85 a4 a2 8c 76 66 67 79 8b 8d     @Tu|hg....vfgy..
     a54:	67 35 24 3a 63 88 9e a7 a8 a2 a5 ad b5 bb c5 c7     g5$:c...........
     a64:	9a 6e 5e 4e 48 58 72 79 68 65 82 a5 a1 86 75 6d     .n^NHXryhe....um
     a74:	6f 79 82 89 6f 43 31 45 5d 6f 7e 8f 9c 9c 9f a8     oy..oC1E]o.....
     a84:	b3 b9 c4 d2 b5 7f 69 61 58 59 64 6d 67 61 73 98     ......iaXYdmgas.
     a94:	a3 8a 7b 7f 82 85 86 89 82 5f 41 45 4d 4c 55 6b     ..{......_AEMLUk
     aa4:	84 8f 91 9a aa b2 b5 c5 cf ae 8a 83 7b 6d 66 64     ............{mfd
     ab4:	67 68 64 6d 82 86 7a 7c 8a 93 95 92 93 91 7a 5a     ghdm..z|......zZ
     ac4:	4c 4b 4b 51 5c 65 70 75 79 88 97 a1 a8 b5 b8 b0     LKKQ\epuy.......
     ad4:	b3 ab 95 8b 89 7c 73 73 6b 65 69 68 67 73 7b 7c     .....|sskeihgs{|
     ae4:	7f 86 88 7f 71 66 66 66 64 6a 71 70 6e 72 79 84     ....qfffdjqpnry.
     af4:	8f 96 a7 b9 b7 b5 b5 a5 97 8d 7a 72 76 68 5a 61     ..........zrvhZa
     b04:	64 60 68 75 7d 83 87 88 8a 85 7a 75 73 6c 69 66     d`hu}.....zuslif
     b14:	60 5c 5d 5f 6c 82 93 a8 c3 c8 c1 c4 bb a6 9b 8e     `\]_l...........
     b24:	7b 77 6a 51 51 5c 56 55 67 74 7a 82 86 8b 8e 85     {wjQQ\VUgtz.....
     b34:	7f 7f 77 6c 64 59 52 55 57 60 77 92 a8 c0 cf c7     ..wldYRUW`w.....
     b44:	be bc ae 9e 98 89 77 71 60 50 5a 63 5b 60 6e 74     ......wq`PZc[`nt
     b54:	76 7d 83 8b 8f 85 80 7f 72 60 59 53 51 59 64 72     v}......r`YSQYdr
     b64:	89 9c aa bf cb bd b7 b8 a6 99 98 87 77 75 65 55     ............wueU
     b74:	62 69 5a 59 64 67 6a 76 83 8f 93 88 81 80 73 65     biZYdgjv......se
     b84:	62 5d 5b 66 6f 76 87 94 9e b4 c4 b7 af b5 a5 94     b][fov..........
     b94:	98 8f 7e 7b 6a 57 5e 62 50 4f 5c 5e 66 79 88 93     ..曜掴邢苻纟忉春沟镐腹腹赴凡朵夺冻冻垛凡封父苟峁蝽赉汶螓忖春忉獾徕獯後勾苟苟覆贩躲倒捣碘村垂黛僮畚忏春倒栋兜范父共狗沟贡贡稿覆贩凡豆栋汆弼黩猷怃春兜朵凡峰稿瑰獗獾峁徨徭垢共苟副舵屙蟒忮春夺倒淬档刀当靛豆夺犯搞苟光瑰广贯曩陶盅揲犋怄春苟搞赴钒恫倒档碘斗反傅狗岣夥飧徭疴僬坨舢惆春徜瑰镐贡父洞荡淬冲瘁栋陡朵返峰镐湓叹枢桧觜惚春瑰徕徭後光搞复峰繁碘捶充锤垫钒覆褊墙冗甬悴春沟獗洳灞灞忖父夺粹创党当粹蹈靛陡晁挠阉剞愠春糕贯镐镐拱共岬獠徕瑰腹繁陡洞碘刀耔溘愦春存锤蛋朵腹钩构岣惴溴滗惚蜂创嘲卜先许陌愕春掣靛凡覆狗逛苟告峰钒犯复拱岽獍後皋虍瘌愣春贯饭捣粹当滇恫恫恫钒搞规瑰构岣愠姿掩忖怵惴春洳愀稿幢驳哺车栋复镐贯岱规贡锋洞隶ǖ喈愀春斗赋苟岬獗峁苟封倒锤村滇豆反跺躲绠偃乌轸铎愎春丰腹钩钩垢忖涓浞忉跺卜贬膊充反狗瞌⒔舢汜春岚後岬搞犯冻蹈烦苟岣獾夤後贡豆炊阖螽槠汊春虫淬洞范钒朵反丰阜贡稿光愠滏宀怃刻漩痦酊沣春碘倍辈惫床复岽徨獗广副跺荡捣副岢郛庐钤桩沅春獾忮獬瑰副档炽床当陡覆赴范枫峰覆占卵璁鳇沐春搞糕沟忉涞浯獬抖变北舶捶付徨飧夥娈钱沔春逛犯栋挡碘赋峁忏惆獍苟饭挡掣窗挡嘁郛腋酪浒春豆腹拱赋赴枫锋阜傅羔岫惚汜忏锋嘲楫浔春狈驳床蜂徙夤獾光返点当点付徨愦愀ヂ踯衍洳春獠贡反当炒撤存豆镐岵狗付饭返犯犯粞捶祥貘涑春枫稿峁忮惆岣夺测舶炒蹈贡忖惴夤拱戢簇浯春洞粹村舵光獯忏獍垢复跺瘁炒虫栋付渌物钍纯喈涞春岣後搞凡斗斗朵凡贩阜岵忏愣忖副窗蜱珥蝼涠春潮翅蛋复獯愀夤镐侗粹荡饭瑰徜徭岢焙挟崴赠浞春钩腹返存翅床垫阜岽瑰赋夺点恫钒丰跸郝弋贶怵涓春覆共徨愦汜愠赋扯册炒锤付怃沔怄垢丢慈涔春躲翠村豆阜广徕岫垢镐贩当充虫档蜂焱伍餮娇正溽春广垢副陡蹈垫烦付勾岫怃汊浒悴饭插柝唧溻春泊潮淬告愣浞惴广陡创吹点丰垢徜岱け坍枘跑溷春光拱犯党撤测炊枫光苟副恫当洞傅贯臃泣庋洚滗春岱忖愎沔浒徨滇脖泊扯靛岵沔溽愠共凇ざ蕻溴春滇翅冲滇副岬獾獗岱沟凡冲辈钡翠覆诤沮蚓彤滏春垢勾贩蹈典赴光後忏沣涓涓獠栋便钡髫莓喈灏春潮点狗愕洳愀岫烦吹扯垂返岵怄愠夥避笈渡醍灞春规返撤般般吵凡构瑰阜躲垛覆苟岬忉醴瞅祀宀春涠宕涔岣锤案北巢侗广惆惴忏岽范吹犬册雠宄春炒锤贩徙沔浒忉贯豆层版倍虫丰光瑰慈鳟楝窥宕春糕饭枫腹拱构舛溷宸浞沟层鞍颁插兜宓春瑰怃愦忖岜舵幢扯挡复獾涞涑忉苟靛锪兑宥春渤卑变翠傅贯苟父赋羔拱镐勾飧溷灏．彤宸春汜封备鞍背炒抖贯怃沣惴岬夺窗幢恫存昀菱甯春稿飧沔汊舛共当备板捕垫糕沟镐腹拱旬弋骞春狗共阜苟怃涠涓飧蹈颁背册翅兜光忮禺哄遽春浔愎垢点吹捣反告徭愦愠獯糕窗北狈芘佐喇邂春幢钒副付搞勾贯苟父腹峁沐涠愎贡彻琉邈春扁潮蹭嘲抖岜愦沣獾复冻兜钒范糕獍杯版沐瘀邃春愕怃岵朵叉备嘲村侗范稿广瑰垢镐父懑拔狯邋春垢夥沅沅獍躲撤扯嘲扁掣枫徜惚忖岵旆栋更彐春阜峰贩垛钒共獠舛岱阜碘炽扯冲瘁点麟甬奂毒受姘春犯共逛逛贯沟勾岱惆愀怃沟档炽虫渤占浚姹春惫蛋告徜獾獗岢构镐凡侗范广峁瑰拱挟蜥霎娌春峰恫淬闯吹存垫返搞逛岢岚垢岚夥悴馓门线醍娉春夤岬丰蛋淬彻卑册凡钩构岫獠獍岫阜刑巩虍娲春夺反共贯镐腹羔范典村党滇捣滇反共牯鲚斡谧隰娴春瑰广贯岽舛忮獾峁稿斗滇瘁贬贬滇丰缵十邡娑春饭拱徭夤獾岜复傅狗告峰赋腹钒档档鹫娣春栋恫倒党躲镐钩告构後獠舛舛獍贯贩噔儆飚娓春陡典叉贬捶洞靛反瑰獗舛獬岢瑰岢共栎卿摁婀春峰赋复斗粹挡侗碘挡捣豆赋稿拱规獠缢裔垡组驷春夥獯夥獠勾凡凡垛撤捕党靛垂侗告瑰蝌敕τ奚岙驸春岱獬獾夥獠构腹告赴点村刀滇捣蛋荡芪众仔驺春豆贩蜂告岽徙獯惚怄徜狗锋凡陡捶扯轺蜩嵌驿春挡蹈创蹈锋傅糕徙惆怃夥徜岢贯副侗邑呢驽春倒碘村瘁蹈典蹈斗锋阜告岬獬飧惚忮氽问剌冂骀春岫稿赴凡滇捶当档吹粹斗钒繁镐徙獾蜈茄张绥瘃卑按飧忏夤徜构赴躲侗刀村淬挡倒点恫返灬治桃佘怩卑贝傅羔光獬舛獾怃獗告复付斗淬垫侗闯缣哚卑泊捶洞侗侗赋规岬獠惚怄獍规搞犯洞蹈卿後湄卑炒碘刀村碘陡垫抖副父傅广獬徜岫徨岢壑污柽娈卑创父付赋斗栋垛倒锤蹈恫栋返钩规峁飧玎胭蓉忄醍卑荡夥峁光糕饭陡栋恫洞冻恫豆凡舵跺覆栲怃汊轵镱卑洞搞傅共岬贯贡规广覆赋搞烦洞钒兜蛋箐疱卑反靛反反赴逛峁岱岽规勾赋反朵夺斗夺摁舢繇赙卑复钒舵钒返钒凡枫犯副沟腹赋贯狗阜钩痫瘐痱卑勾垢付赴副跺冻夺豆陡犯羔沟瑰岵规垢钽觊桫卑岽搞蜂返繁跺繁范返犯丰返跺跺繁繁反躐铖鲺躅铖耵卑獯赴复赴糕贡傅父共腹付羔犯钒锋反斗甬翮卑愦复狗父共岬勾傅腹饭斗钒范舵贩阜腹琊鲲鳟卑浯覆赴副封烦范丰贩饭傅付峰赴腹赋范篥鼯卑宕犯副反陡繁丰钒贩构垢羔峁徭付阜光翳聱瘅卑娲犯兜副丰冻贩复跺垛枫封繁饭阜付复瀹泖铍聩北按稿钩腹阜稿复范蜂赴钒朵范烦跺犯副鳊痦鲶铠北贝蜂复贡阜锋羔副反锋覆锋父糕父羔复舢北泊副付丰反副枫繁蜂锋反饭锋范丰付赋舢颀豉鳅北炒锋阜糕傅赋傅傅副锋覆锋封蜂蜂贩贩鼢北创蜂峰蜂覆付锋枫覆封烦峰赴贩锋羔付...|.{s.w...
    1154:	83 88 8a 84 7f 87 87 7a 7f 86 77 72 7f 79 6f 7c     .......z..wr.yo|
    1164:	82 79 7f 8c 87 82 89 8c 85 82 87 84 7b 7a 7b 75     .y..........{z{u
    1174:	73 79 7a 78 80 86 83 82 87 87 80 7e 84 80 79 80     syzx.........y.
    1184:	81 77 7a 81 7c 80 88 85 8d 90 85 8b 8c 7a 7c 83     .wz.|........z|.
    1194:	72 70 7d 75 6d 79 7b 74 7b 85 85 86 8d 8f 8b 87     rp}umy{t{.......
    11a4:	88 84 7b 7c 7e 79 78 7d 7b 78 7b 7b 79 7c 80 81     ..{|yx}{x{{y|..
    11b4:	82 82 82 80 7f 7c 7b 7e 83 87 86 88 8e 88 7c 83     .....|{......|.
    11c4:	84 75 77 80 74 71 7d 78 71 7c 80 7b 82 8c 8a 88     .uw.tq}xq|.{....
    11d4:	8c 8c 85 81 84 82 7b 7c 7f 79 75 79 74 70 78 77     ......{|.yuytpxw
    11e4:	79 84 82 84 8b 81 82 8b 81 82 90 84 7e 8f 83 71     y.............q
    11f4:	82 83 6f 78 83 76 76 82 7e 7a 83 88 85 85 8b 8b     ..ox.vv.z......
    1204:	82 80 83 7b 73 7a 7c 76 7c 83 7b 7a 83 7b 75 80     ...{sz|v|.{z.{u.
    1214:	7d 74 7a 81 80 83 88 8b 8f 8e 8b 8e 8e 85 81 80     }tz.............
    1224:	79 76 78 75 74 79 7b 79 7c 81 81 80 83 86 85 82     yvxuty{y|.......
    1234:	84 83 7d 7b 7e 7b 75 79 7d 73 74 82 7d 75 85 88     ..}{貔篝醍辈创丰复共付羔苟镐糕拱付赋付蜂饭枫凡辈荡钒范钒舵饭封枫复阜付阜付复覆蜂犯瘀痫辈洞烦反凡豆钒饭舵返阜复羔瑰逛贯岜逛篝蜷瘗秕辈反钩糕复赋贩豆舵朵垫陡贩凡丰稿告稿鏖镯哞黩辈复狗苟搞付副贩躲冻典典垫滇兜丰贩峰黛爿葸阱齄辈勾垢构构徭獍岫徜岚搞镐饭恫朵恫村冻忭馕辈岽朵侗犯拱羔勾岱岢广广共赋凡抖点锤磲蜴苋辈獯吹挡捶存凡反犯逛岫岱惚愕忏愠獍勾乓窍螋辈愦钩贩蛋点档扯村抖蹈跺钩共贯獬獯徙餍苷段尕町辈浯後岚拱犯恫蹈幢吵窗炽充侗繁反狗徨庳脸兰结耵辈宕獗愣浔愀沣惚苟糕赋淬炽捣冲潮恫跺碳拙扁辈娲洞镐後岵徭愠忉徕岜共封倒幢幢扯辨洚倭炼背按炒蹈蛋栋沟规规惴涓汜沐洳忖贡峰饭簇朽背贝粹补垂粹叉档赴范付獠獾獍惆怄徙构拴伤债霎背泊阜反存巢斥车备掣冻刀垛岵岣徙沔涔粝不诞搞蛛背炒浯涑汜舛拱烦垛闯渤窗吹巢蹈赴丰镐箅茫琅藏背创獯飧飧悴怃徜狗峰兜幢测层卞便窗档辶勒背荡侗父峁舛沣滏灞宥灏怄岽贡冻幢彻哺岙懔龚背洞补幢垂垫复勾岢怃愠惆愠獯逛父兜幢┝蛇辶背反嘲舶辈扁插床靛峰光獾汊溴邂遽宀溻罗背复夥覆范兜哺扁幢翅蹭垫付傅光忮愕惆鲥ó梁弋背勾悴怄徕羔跺档潮备备扁变撤蹈钒搞徕钫碑坟甬背岽愕涔宸邈甯宀愦勾赴舵插倍创斥变档锂幕背獯傅犯拱惆愦惆汊愀飧垢范靛斥狈钡贬鲛划背愦狈测挡夺副岽愠涞宄邈甯宓汊苟峰返谊背浯扯般充炊惫锤腹丰阜忖愦惆沅惴夤岜懂狡犬背宕犯典床备板便惫卜党舵副岢愦涑灞邂萋в锂背娲宥宕沔狗蜂犯掣搬翅垂备幢父蜂付忏府荷廉贝按愣惚沣愦舛岵返蹈炊扁案变脖补荡犯踟飘々曾贝贝糕岫惆涑滏宓宓宄沔垢贩钒炽般测锤黟籍贝泊测窗赴镐钩獗悴惴愕獾徜岜反刀淬层喇糁态贝炒贝渤嘲炒党贩搞岜獾愣涞溽溴宀涞岵０从鳟贝创饭反存辈便垂斥扯反狗勾岱怄愠怃徨粝苫遏贝荡岢瑰峰滇党幢泊补斥炽淬舵傅勾峁忖谟沥┗继锂贝洞汜涠滗灏溷夤赴朵点卞案彻创巢兜光碥鼓插贝反广峁忮忮忏徨狗沟腹兜捣刀虫扯闯创遄挚睹贝复瘁侗返傅贯後忖沅浯溽滏沣钩豆靛炒梳醍檗贝勾安备闯幢挡腹岱徨飧忖忖獯广稿稿封昧耶贝岽陡恫荡翠蛋捶创滇豆跺傅瑰峁夥惴涑桠酝星内轭贝獯涓涑忏副档蛋哺鞍辨刀瘁靛岚獯舛怄招ó质蕻贝愦夥獯獠拱赴搞蜂陡冻倒刀滇瘁床典繁桡僦谑螺贝浯朵锋岫獍徜怄浒汊悴獯蜂村村蹭鞍捕懋挝贝宕滇滇舵光徭怃忖岱徨獯贡锋搞傅烦洞谮锂箐贝娲刀碘滇吹闯碘舵丰付瑰獾徨徜惚怄獗舟谂蜜嵇钡按獠拱荡荡荡惫惫靛夺恫复岜徙獠岚规栽援揸猱钡贝夥岫覆搞狗赴斗刀党蹈捶掣当钒封腹缰迂歉佯钡泊广徨獾岫岱舛徜岢规凡荡斗淬便锤饭蛟缣腮钡炒抖躲告构岬岬共岽忉贯复构沟贩垫村骒鬟钡创蛋荡炽斥洞锋赋共岽徭徕广岵徜岫岽性蓟洚钡荡苟夺冻钒幢驳典贩冻钒糕构峁岚共徜赉鹆ポ縻甬钡洞忖沟复共搞舵党捶党档炽闯跺赋复告镉怯占妙钡反光岬岬构岜獠獗獍规反朵烦床补靛反繇舐┺钡复冻烦镐贯徨峁勾岫獯拱犯赴封陡挡幢泱枰钡勾粹蹈捶床洞覆付付搞瑰峁岢岫忉愎愦素锹洚钡岽岽封反钒炊嘲刀烦反蜂稿岜舛徨钩钩麴瓢煮酏钡獯瑰羔朵抖垛豆滇炊捶捣档村滇凡覆父礞腴谄亲瘴隍钡愦父贡岽徭獗獾怄愠徜副躲舵碘炊蹈反祜燮佤钡浯副稿苟贯岣徭狗复阜覆舵斗陡抖垫刀镧桄咧钡宕存蛋蛋存捣斗贩赋稿广岣徭獬獬徭徨闲邢诅鳟钡娲岵复躲垛垛兜朵覆告勾狗沟钩钩羔封祀脲懋倍按犯封返跺凡范钒斗恫靛点碘滇栋垛犯躅蝣痃廪苒卩滕倍贝赋羔告钩共稿糕羔搞稿稿搞勾岚岱徕倍泊獗徭岚钩父犯躲抖典蹈滇典典栋抖陡戽葚谳萼骅倍炒躲凡范犯蜂副覆赋付付傅锋贩烦繁繁祢鲽黧耨倍创范覆稿苟贯岽獍獬獬獠徙瑰共付犯舵霎倍荡垛冻滇倒滇蹈捣点栋兜朵反贩封蜂封脬谫谪总噱眙鼷倍洞枫赴覆锋枫枫锋复羔共逛岬岫岢岫後倍反岽逛贯共复封返夺兜抖侗靛兜陡斗垛蹶彐徂彖珉倍复凡反范饭犯范烦跺躲躲躲跺繁返丰复螋鳄鲶铎祆铖斛倍勾稿构岽徭獾獬徭徨徕岚沟拱付贩繁跺黢倍岽抖洞斗抖兜垛舵跺凡犯犯贩贩返凡跺驿珂咫镱蝤鼢躜倍獯豆斗斗斗夺钒返蜂父钩广岱獍獬徭峁殓珑牮觚倍愦岫岽贯共稿傅饭范反舵跺繁朵豆跺舵鲷镱耥轭倍浯躲钒反凡烦贩贩返反凡繁钒舵凡返犯祓趄篦黪趄耩矧貘倍宕蜂复搞钩光岜岢岚光光贯钩告稿付蜂倍娲峰枫范范范跺豆垛夺陡垛舵繁返封峰鲻鲱殡觇腼聃狈按峰峰峰蜂封丰枫蜂蜂锋复付羔告共钩{z|}}.......
    1714:	8f 8b 8e 8e 8a 89 89 85 82 83 82 7e 7d 7a 72 6e     ...........}zrn
    1724:	70 6e 6d 71 75 78 7c 80 81 81 81 80 7f 7d 7d 7f     pnmqux|......}}.
    1734:	7e 7e 81 82 83 86 89 8b 89 85 83 86 86 83 85 86     ~..............
    1744:	82 81 82 7f 7b 7c 79 74 75 77 76 78 7e 80 81 84     ....{|ytuwvx...
    1754:	85 83 80 7f 7d 7b 7a 7b 7c 7c 7e 80 82 83 85 88     ....}{z{||.....
    1764:	8a 89 85 85 88 85 82 84 83 7d 7c 7b 76 75 77 75     .........}|{vuwu
    1774:	73 78 7c 7d 80 85 86 86 86 85 81 7f 7d 7b 79 78     sx|}........}{yx
    1784:	78 79 7a 7c 7e 81 84 88 8d 91 8f 8d 8e 8d 88 85     xyz|...........
    1794:	83 7d 76 74 71 6e 70 72 73 76 7c 7f 82 86 89 89     .}vtqnprsv|.....
    17a4:	89 87 83 7f 7c 79 76 74 72 71 73 75 77 7d 82 86     ....|yvtrqsuw}..
    17b4:	8b 92 94 92 92 91 8e 88 85 81 7a 76 73 70 6f 71     ..........zvspoq
    17c4:	74 77 7b 81 83 87 8b 8d 8b 89 87 82 7e 7a 77 73     tw{.........zws
    17d4:	70 6f 6f 71 74 77 7b 83 8a 8e 92 95 93 90 8f 8d     pooqtw{.........
    17e4:	86 82 7e 77 73 70 6f 6f 72 76 79 7c 80 84 86 89     ..wspoorvy|....
    17f4:	8b 8a 88 86 83 80 7d 79 77 74 73 73 75 76 7a 7f     ......}ywtssuvz.
    1804:	82 88 8c 8d 90 91 8d 8b 89 84 80 7f 7b 77 76 75     ............{wvu
    1814:	75 78 78 7a 7c 7c 7e 80 80 82 83 82 82 80 7d 7c     uxxz||.......}|
    1824:	7a 78 79 79 79 7b 7e 80 83 86 88 8b 8b 8b 8d 89     zxyyy{.........
    1834:	85 85 84 80 7f 7f 7c 7c 7d 7b 7c 7d 7d 7d 7c 7c     ......||}{|}}}||
    1844:	7e 7e 7e 7f 7e 7b 7a 78 77 77 78 78 79 7c 7c 7f     ~.鼢备荡赋复阜父腹腹阜傅傅傅复赋赋赋复复备洞赋赋赋覆赴锋峰蜂蜂枫封丰饭犯贩范}|{zyxwv
    1874:	76 76 77 78 79 7b 7d 7e 80 81 81 82 82 81 82 82     vvwxy{}........
    1884:	82 81 83 83 83 86 86 87 88 88 89 89 8a 89 89 87     ................
    1894:	86 83 80 7e 7b 79 76 75 74 74 74 75 76 78 79 7b     ...鲺趑趱鲽备岽枫峰峰锋峰峰峰峰峰锋锋锋锋锋赴赴备獯副覆覆副覆赋复付父父父父阜付傅傅备愦赋覆副锋峰蜂蜂枫封丰丰丰丰丰封枫}|{zzzzz{|
    18d4:	7c 7d 7d 7d 7e 7f 7f 7f 80 81 80 7f 80 80 80 81     |}}}...........
    18e4:	82 80 7f 80 80 7e 7f 81 81 83 84 84 85 84 84 85     ...............
    18f4:	84 81 81 81 7e 7d 7e 7d 7d 7c 7b 7c 7a 7a 7f 7f     ....}}}|{|zz..
    1904:	7b 81 82 7d 7f 81 7f 80 82 81 81 81 81 80 7f 80     {..}............
    1914:	80 7f 7d 7d 7f 7f 7d 7e 7f 7f 7e 80 81 81 82 83     ..}}..}.......
    1924:	81 82 83 83 82 81 80 7e 7f 7e 7d 7e 7e 7d 7d 7d     ........}~}}}
    1934:	7d 7e 7f 7f 7f 7f 80 7f 7f 81 80 80 81 81 80 81     }..............
    1944:	81 81 81 81 80 7f 7f 7e 7e 7e 7e 7f 80 80 80 80     .......~~.....
    1954:	7f 7f 80 80 7f 80 80 80 7f 7f 7f 7f 7f 7f 7f 7e     ...............    1964:	7e 7e 7e 7e 7f 7f 80 80 80 80 80 81 82 82 81 81     ~~............
    1974:	81 81 80 7f 80 7f 7f 7e 7f 7f 7f 7f 7f 80 81 81     ...............
    1984:	81 80 80 7f 7f 7f 7f 7f 7f 7f 7f 7f 80 80 80 81     ................
    1994:	81 80 80 80 80 80 80 7f 7f 80 80 80 7f 80 80 80     ................
    19a4:	80 81 81 81 81 81 81 81 81 80 80 7f 7f 7e 7e 7e     .............~    19b4:	7e 7e 7e 7e 7f 7f 7f 80 80 81 81 80 80 80 80 7f     ~~............
    19c4:	7f 7f 7f 7f 7f 7f 7f 80 80 81 81 82 82 82 81 81     ................
    19d4:	80 80 80 7f 7f 7e 7e 7e 7e 7e 7f 7f 80 80 80 80     .....~~......
    19e4:	80 80 80 80 80 7f 7f 7e 7e 7e 7e 7e 7e 7e 7e 7f     .......~~~~.
    19f4:	7f 80 81 81 82 82 82 82 81 81 81 80 80 7f 7f 7f     ................
    1a04:	7f 7f 7f 7f 80 80 80 80 81 81 81 81 81 80 7f 7e     ...............    1a14:	7e 7d 7d 7d 7d 7d 7e 7e 7f 7f 80 80 81 81 81 81     }}}}}~........
    1a24:	81 81 80 80 80 7f 7f 7e 7e 7f 7f 7f 80 80 80 81     .......~.......
    1a34:	82 82 82 82 82 81 81 80 7f 7f 7e 7e 7e 7e 7e 7e     ..........~~~
    1a44:	7e 7f 7f 80 80 81 81 81 81 81 80 80 7f 7f 7e 7e     .............~
    1a54:	7e 7e 7e 7e 7f 7f 80 80 81 81 81 81 81 81 81 80     ~~............
    1a64:	80 7f 7f 7f 7e 7e 7e 7e 7e 7f 7f 7f 80 80 80 80     ....~~.......
    1a74:	80 80 80 80 7f 7f 7f 7f 7f 7e 7f 7f 7f 7f 80 80     ...............
    1a84:	80 80 80 80 80 80 80 80 80 80 80 7f 7f 7f 7f 7f     ................
    1a94:	7f 7f 80 80 80 80 80 80 80 80 80 7f 7f 7f 7f 7e     ...............    1aa4:	7e 7e 7f 7f 7f 7f 80 80 80 80 80 80 80 80 80 80     ~..............
    1ab4:	80 7f 7f 7f 7f 7f 7f 7f 7f 7f 7f 80 80 80 80 80     ................
    1ac4:	80 80 80 80 80 7f 7f 7f 7f 7f 7f 7f 7f 7f 7f 7f     ................
    1ad4:	7f 7f 7f 80 7f 7f 7f 80 80 7f 7f 7f 80 80 80 80     ................
    1ae4:	80 80 80 80 80 80 80 80 80 80 80 80 80 7f 7f 7f     ................
    1af4:	7f 7f 7f 7f 7f 7f 7f 7f 80 80 80 80 80 7f 7f 7f     ................
    1b04:	7f 7f 7f 7f 7f 7f 7f 7f 80 80 80 80 80 80 80 80     ................
    1b14:	80 80 80 80 80 80 80 80 80 80 80 80 80 7f 7f 7f     ................
    1b24:	7f 7f 7f 7f 7f 7e 7e 7e 7e 7f 7f 7f 7f 7f 7f 80     .....~~.......
    1b34:	80 80 80 80 80 80 80 80 80 80 80 80 80 80 80 80     ................
    1b44:	80 80 80 80 80 80 80 80 80 80 7f 7f 7e 7e 7e 7e     ............~~
    1b54:	7e 7e 7e 7f 7f 7f 7f 7f 7f 7f 7f 80 80 80 7f 7f     ~.............
    1b64:	7f 7f 7f 80 80 80 80 80 80 80 81 81 81 81 81 81     ................
    1b74:	80 80 80 80 80 7f 80 7b 7b 84 7e 7b 81 7f 7e 7d     .......{{.
    1b84:	7d 80 79 7c 85 7e 76 83 86 77 82 8a 7d 83 83 7e     }.y|.v..w..}..    1b94:	7f 80 83 80 83 85 7e 7d 7b 7d 81 7f 80 83 81 7c     ......}{}.....|
    1ba4:	83 81 78 7d 89 82 77 7f 8a 78 73 86 81 75 84 7e     ..x}..w..xs..u.    1bb4:	74 82 7e 77 81 7f 7f 84 7c 7e 89 84 82 84 86 85     t.w....|......
    1bc4:	79 87 84 77 85 81 7b 81 7b 7e 7c 7b 85 7d 7d 84     y..w..{.{|{.}}.
    1bd4:	7b 7f 81 7d 83 82 7f 82 7f 7e 7e 7c 80 81 7e 81     {..}.....~|...
    1be4:	80 7d 81 7e 7d 82 80 81 80 82 80 7c 86 83 7c 86     .}.}......|..|.
    1bf4:	83 7c 7f 7f 81 7f 7a 83 80 78 84 7d 7a 82 7e 7e     .|....z..x.}z.~
    1c04:	80 7e 82 80 7f 7f 83 7f 7c 85 81 78 85 81 78 80     .......|..x..x.
    1c14:	7e 7c 81 79 83 86 79 85 85 79 87 7f 7d 89 7b 80     |.y..y..y..}.{.
    1c24:	88 7a 83 80 7b 83 78 7c 84 77 7f 85 79 81 81 77     .z..{.x|.w..y..w
    1c34:	82 7e 7d 84 7d 85 81 79 88 7b 7c 88 79 84 86 77     .}.}..y.{|.y..w
    1c44:	84 82 7a 83 82 7e 83 83 81 81 7f 83 7f 78 84 7e     ..z.........x.    1c54:	75 85 7c 75 7f 7d 79 7d 7d 80 7f 7a 82 85 78 8a     u.|u.}y}}..z..x.
    1c64:	88 75 8d 83 78 8f 80 84 8b 7c 8f 85 78 93 81 77     .u..x....|..x..w
    1c74:	89 7c 75 7a 73 73 71 6e 75 6c 6b 7c 6f 77 89 78     .|uzssqnulk|ow.x
    1c84:	88 91 82 98 99 8e a1 9d 92 99 94 8b 85 82 82 73     ...............s
    1c94:	6d 74 62 5b 68 5c 58 6a 64 61 73 78 6e 81 98 82     mtb[h\Xjdasxn...
    1ca4:	91 af 93 9e b5 9c a5 a4 98 9d 85 83 8b 6a 6a 74     .............jjt
    1cb4:	5d 5b 60 57 5a 59 63 68 63 76 7d 76 89 8e 92 9e     ][`WZYchcv}v....
    1cc4:	9c aa a8 9d ad a2 96 9f 8e 86 82 75 70 67 62 64     ...........upgbd
    1cd4:	57 5a 62 5a 5d 69 6a 6e 76 80 82 85 9b 98 91 ae     WZbZ]ijnv.......
    1ce4:	ab 99 ae ab 97 9a 99 88 7b 78 75 5f 59 65 54 47     ........{xu_YeTG
    1cf4:	63 5e 4a 6e 75 60 80 8d 80 94 a6 9d 9d b6 ad 99     c^Jnu`..........
    1d04:	b3 ad 8f 9a 96 7a 74 73 64 53 57 59 47 4e 5f 53     .....ztsdSWYGN_S
    1d14:	5b 74 70 77 8f 90 94 a9 a3 a3 ba a6 9e b9 9e 8d     [tpw............
    1d24:	a1 89 71 78 6c 57 55 59 52 47 57 61 51 64 7c 6f     ..qxlWUYRGWaQd|o
    1d34:	7c 98 91 97 b0 a4 a7 bc a0 a2 bb 94 8c a0 7c 6d     |.............|m
    1d44:	77 61 50 52 56 49 43 5f 5a 4f 74 79 71 8e 9a 94     waPRVIC_ZOtyq...
    1d54:	ad b1 a0 be b2 92 bb a9 85 a1 8f 6f 75 6b 58 4a     ...........oukXJ
    1d64:	53 53 3f 50 63 50 5d 7b 72 7a 98 96 9d b5 a9 ad     SS?PcP]{rz......
    1d74:	c2 9f a3 bc 93 8e a3 7e 6b 76 64 47 4e 58 41 43     .......kvdGNXAC
    1d84:	5e 57 53 6e 77 74 86 9b 96 a8 b9 a4 ba bd 91 b7     ^WSnwt..........
    1d94:	b3 82 a2 99 6a 76 6e 52 49 52 4e 3f 51 61 51 62     ....jvnRIRN?QaQb
    1da4:	78 6d 7c 91 90 9c b4 aa a8 c9 a7 95 c6 9f 82 ac     xm|.............
    1db4:	8b 64 78 6a 45 48 56 43 3d 60 5f 49 74 7c 61 8c     .dxjEHVC=`_It|a.
    1dc4:	9c 83 aa bf 9a b2 d0 94 9d cd 8f 85 b2 81 61 7c     ..............a|
    1dd4:	68 3c 4b 5a 38 3c 6a 54 48 7d 74 60 96 98 84 b5     h<KZ8<jTH}t`....
    1de4:	bd 96 bf c9 88 b0 c6 80 97 b0 73 6b 7f 5c 3c 53     ..........sk.\<S
    1df4:	53 30 47 6a 47 4f 81 68 65 9c 93 8a c0 b9 99 cf     S0GjGO.he.......
    1e04:	bf 88 c2 b7 7c a6 a1 69 74 76 4c 3e 53 46 2d 51     ....|..itvL>SF-Q
    1e14:	61 3d 5d 7f 5b 74 a2 8a 99 cb af a6 dc b1 92 d2     a=].[t..........
    1e24:	aa 81 b2 95 65 79 6e 42 40 54 3a 2d 5a 55 39 69     ....eynB@T:-ZU9i
    1e34:	73 55 82 97 84 a5 c5 a9 b1 dc aa 9c d7 a3 86 ba     sU..............
    1e44:	90 63 82 6c 3c 4a 55 32 36 5f 4c 3f 70 6a 55 89     .c.l<JU26_L?pjU.
    1e54:	8f 7f ac c0 a1 b5 d9 a1 9f d9 9c 87 bf 8b 61 88     ..............a.
    1e64:	6a 39 51 58 2f 3d 65 48 42 76 65 55 8e 8a 7d af     j9QX/=eHBveU..}.
    1e74:	ba 9f b6 d4 a2 9c d7 a0 84 c0 8e 5f 8b 6c 38 54     ..........._.l8T
    1e84:	58 30 3f 63 4b 44 73 6a 56 89 8e 7a a8 bb 9f ad     X0?cKDsjV..z....
    1e94:	d2 aa 91 d0 ae 7a b9 9f 5b 86 7c 3b 4f 62 36 3a     .....z..[.|;Ob6:
    1ea4:	65 54 43 70 71 57 82 90 7a 9d b2 a5 a6 bc bc 8f     eTCpqW..z.......
    1eb4:	ae c5 7d 9a b7 67 74 8f 4c 48 68 47 38 5d 5d 49     ..}..gt.LHhG8]]I
    1ec4:	61 75 60 6f 8f 7f 8a ab a6 a4 aa bc a8 8f c1 a4     au`o............
    1ed4:	7a b4 94 60 8e 75 46 61 5f 40 4f 63 55 51 6d 6a     z..`.uFa_@OcUQmj
    1ee4:	5d 7f 84 77 99 9f 9f ab a5 ba a5 94 c5 99 85 b9     ]..w............
    1ef4:	85 6c 96 69 50 6a 57 46 58 5d 55 58 68 67 62 78     .l.iPjWFX]UXhgbx
    1f04:	7f 77 90 9a 9a a7 a2 b4 a9 94 bf a1 85 b4 8e 6f     .w.............o
    1f14:	94 72 56 6a 5d 4d 57 5d 5b 57 66 6a 62 73 7b 75     .rVj]MW][Wfjbs{u
    1f24:	86 90 93 a2 98 a6 b4 8e ad bb 85 a6 ac 75 8b 8b     .............u..
    1f34:	61 65 69 57 52 5d 64 57 61 74 61 6c 81 6d 78 8f     aeiWR]dWatal.mx.
    1f44:	7e 8e a0 86 a0 ad 83 ad b5 86 ab aa 7c 90 8c 6a     ...........|..j
    1f54:	68 6f 60 54 64 6a 58 68 73 61 6e 7a 68 76 7f 75     ho`TdjXhsanzhv.u
    1f64:	83 94 80 91 ac 86 9f c4 92 a4 c0 8c 8d 9e 79 6a     ..............yj
    1f74:	78 6c 55 63 6f 58 5e 75 5e 5f 79 61 5e 7a 6a 66     xlUcoX^u^_ya^zjf
    1f84:	89 88 78 9e ac 86 b3 ca 95 b5 cb 8e 9a ac 78 6e     ..x...........xn
    1f94:	87 66 51 6d 65 4a 61 69 4f 5c 6c 54 58 6e 5f 63     .fQmeJaiO\lTXn_c
    1fa4:	81 87 81 96 b5 9b a2 d9 af a6 dd ac 91 bc 8f 6b     ...............k
    1fb4:	89 70 4c 63 61 46 53 60 4d 53 64 53 56 67 5c 66     .pLcaFS`MSdSVg\f
    1fc4:	7a 77 8a 9b 8f b0 b5 9d cb c8 a6 ce be 95 ab 96     zw..............
    1fd4:	70 77 6c 54 52 56 50 4a 56 5b 53 60 68 5c 69 72     pwlTRVPJV[S`h\ir
    1fe4:	67 77 85 7b 92 9f 8d ad b4 96 c0 c2 9b bb b5 87     gw.{............
    1ff4:	97 91 68 6a 6e 52 4e 5e 55 4f 64 68 5e 73 7a 6b     ..hjnRN^UOdh^szk
    2004:	7b 81 73 7d 84 7d 83 8f 8f 88 9f a1 8b ad ae 8a     {.s}.}..........
    2014:	a8 a5 7a 90 8e 64 6e 75 55 5b 6c 5e 60 78 75 71     ..z..dnuU[l^`xuq
    2024:	85 87 77 87 89 74 7e 82 6f 79 7f 77 81 81 88 91     ..w..t.oy.w....
    2034:	86 9e a2 8c a3 9e 80 92 87 69 77 72 5f 6d 71 6b     .........iwr_mqk
    2044:	77 7b 7b 84 86 85 87 86 83 80 7c 78 75 72 71 75     w{{.......|xurqu
    2054:	77 7e 7f 81 90 89 86 9c 8c 84 9b 87 7a 8e 7e 6f     w..........z.o
    2064:	81 7a 6d 7b 7d 73 7b 80 78 7c 86 7f 7f 8a 84 7e     .zm{}s{.x|.....    2074:	87 81 77 7f 7b 72 7a 7b 78 7e 7e 83 86 83 8f 92     ..w.{rz{x~.....
    2084:	8b 97 94 87 8d 86 76 78 74 69 6e 6f 6c 73 77 78     ......vxtinolswx
    2094:	80 84 84 87 89 85 83 83 7e 79 7a 78 75 79 7d 7d     ........yzxuy}}
    20a4:	82 87 89 89 8c 8e 8a 89 8e 89 85 8a 86 7e 83 7e     ..............    20b4:	75 7a 78 70 74 74 70 74 77 75 7a 7e 7e 81 84 84     uzxpttptwuz~...
    20c4:	84 87 88 85 86 87 81 81 81 79 79 7a 74 75 78 76     .........yyztuxv
    20d4:	77 7c 7e 7e 85 88 89 8f 91 90 92 92 8e 8d 8a 85     w|~............
    20e4:	81 7f 7a 77 75 72 71 72 71 72 75 77 7a 7e 80 83     ..zwurqrqruwz..
    20f4:	85 85 86 84 82 82 7e 7a 79 75 71 72 72 72 76 7c     ......zyuqrrrv|
    2104:	7d 83 8a 8c 90 97 97 98 9b 98 95 93 8d 86 82 7b     }..............{
    2114:	75 70 6c 69 67 67 66 68 6c 6f 73 79 7e 82 88 8c     upliggfhlosy...
    2124:	8e 91 92 91 92 8e 8b 8a 85 7e 7e 79 72 74 70 6a     .........~yrtpj
    2134:	6f 71 6e 77 7c 7c 84 89 8a 8f 93 92 94 95 91 90     oqnw||..........
    2144:	8d 87 82 7e 79 75 72 71 6e 6f 70 70 72 75 77 7a     ...yurqnoppruwz
    2154:	7d 80 82 85 87 87 89 8a 88 88 87 85 84 83 81 80     }...............
    2164:	7e 7d 7c 7a 7a 7a 79 79 7b 79 79 7d 7b 7c 7f 7e     }|zzzyy{yy}{|.    2174:	7f 82 82 83 87 86 87 89 87 87 86 83 83 81 7f 7f     ................
    2184:	7e 7d 7e 7c 7c 7c 7b 7c 7d 7c 7d 7f 7f 80 82 82     }|||{|}|}.....
    2194:	82 83 82 82 81 80 7f 7e 7d 7d 7c 7c 7c 7d 7e 7e     .......}}|||}~
    21a4:	7e 7f 7f 80 80 80 81 80 81 82 80 81 82 7f 80 81     ...............
    21b4:	7e                                                  
000021b5 <Basm_Allah>:
    21b5:	80 80 80 80 80 80 7f 7f 7f 7f 7f 7f 7f 7f 7f 7f     ................
    21c5:	80 80 80 80 80 7f 7f 80 80 80 80 80 80 80 80 80     ................
    21d5:	80 80 80 80 80 80 80 80 80 80 80 80 80 7f 7f 7f     ................
    21e5:	7f 7f 7f 7f 7f 7f 7f 7f 7f 7f 7f 7f 7f 7f 7f 7f     ................
    21f5:	7f 7f 7f 7f 80 80 80 80 80 80 81 81 81 81 81 81     ................
    2205:	81 82 82 82 82 82 81 81 81 81 81 81 81 81 80 80     ................
    2215:	80 80 80 80 80 80 80 80 80 7f 7f 7f 7e 7e 7d 7d     ............~}}
    2225:	7c 7c 7c 7c 7c 7c 7c 7c 7d 7d 7e 7e 7f 7f 80 81     ||||||||}}~....
    2235:	82 82 83 83 83 84 84 83 83 83 83 83 83 83 83 82     ................
    2245:	82 81 81 81 80 80 7f 7f 7e 7e 7d 7c 7c 7b 7b 7b     ........~}||{{{
    2255:	7c 7c 7c 7c 7d 7d 7c 7d 7d 7e 7e 7e 7e 7e 7f 7f     ||||}}|}}~~..
    2265:	7f 7f 7f 7f 7f 80 80 80 81 81 82 82 82 82 82 83     ................
    2275:	83 83 84 85 85 85 85 84 83 82 82 7f 7f 7e 78 78     .............xx
    2285:	78 75 76 79 7c 7d 7f 80 82 84 83 84 84 83 83 81     xuvy|}..........
    2295:	7d 7d 7e 7a 78 7b 7b 77 79 7b 7b 7c 7e 7d 7f 82     }}zx{{wy{{|}..
    22a5:	81 81 86 88 86 88 8b 8b 8a 89 89 89 85 83 81 7e     ...............    22b5:	7c 79 75 76 77 75 76 7a 7c 7e 82 85 87 8b 8b 8a     |yuvwuvz|......
    22c5:	89 88 86 7e 7d 7e 75 70 71 6d 6c 6e 6c 6f 75 77     ...}upqmlnlouw
    22d5:	7a 81 87 8a 8c 91 96 96 96 96 94 92 8e 88 84 81     z...............
    22e5:	79 73 72 6e 6b 6a 6c 6f 73 77 7c 84 88 8c 90 93     ysrnkjlosw|.....
    22f5:	91 8e 8f 8a 80 80 7a 71 6e 6a 66 6a 68 68 70 75     ......zqnjfjhhpu
    2305:	78 7e 83 8c 8f 90 98 9d 9d 9b 99 97 93 8b 83 7f     x..............
    2315:	7a 74 6c 69 6b 66 65 6b 6f 73 79 7e 85 8c 8c 8c     ztlikfekosy....
    2325:	90 90 8a 8a 85 7d 7c 73 6c 71 6d 68 6e 70 72 79     .....}|slqmhnpry
    2335:	7a 81 8c 8d 90 99 9b 9c 9e 9c 95 95 91 81 80 80     z...............
    2345:	72 6d 6c 67 68 68 65 6e 73 75 7d 81 85 8c 8a 87     rmlghhensu}.....
    2355:	8b 8b 85 83 81 7e 7b 76 74 75 73 73 75 77 7b 7e     .....鲷躞篚鼷渤兜锋复腹腹糕镐贡钩共告稿糕腹赋赴赴渤返封范反烦烦繁繁烦贩犯饭蜂副覆赋覆鲷篌耨篦渤傅付父复傅复副副蜂蜂峰封封枫封枫蜂渤沟蜂副覆副付傅复阜腹阜阜腹傅付赋赴渤岬覆峰枫蜂丰封丰范饭丰犯贩饭蜂枫饭鳄鼯渤獾峰副锋锋副副副峰峰副锋蜂峰峰锋蜂渤愕锋赴副副覆覆赋覆副赴赋副峰赋赋副渤涞覆赋赋傅复阜付复复覆赴覆蜂蜂锋封渤宓犯饭丰封犯封峰蜂枫赴锋峰锋峰枫锋|...|.
    23f5:	80 7e 7c 81 80 7d 7f 83 7f 7f 81 7e 7f 7f 7d 80     .|..}.......}.
    2405:	7f 80 80 7f 85 82 81 85 83 82 84 81 80 81 7f 7f     ................
    2415:	7f 7f 80 7e 82 81 7f 84 84 80 83 84 81 7f 7f 80     ...............
    2425:	7f 7f 7f 7d 80 81 7d 80 83 80 7e 7e 80 80 7c 7e     ...}..}...~..|    2435:	7f 7f 7d 7d 80 81 80 81 80 81 80 7d 7d 7f 7d 7b     ..}}.......}}.}{
    2445:	7d 7e 7e 81 7f 7e 82 84 80 81 85 84 7e 81 82 7e     }~..........    2455:	80 7f 7d 7f 81 7e 7c 7f 82 80 7c 80 83 7e 7d 7f     ..}..|...|..}.
    2465:	81 81 7d 7f 83 7f 7e 80 7f 7f 7f 7d 7e 7f 7f 7d     ..}.......}..}
    2475:	7e 81 80 7d 81 81 81 80 81 83 83 80 80 82 80 7d     ..}...........}
    2485:	80 7f 7e 80 7e 7f 81 7d 7e 7f 7f 7f 7d 81 80 7e     .....}...}..    2495:	81 81 80 81 7e 82 80 7f 80 81 80 7e 7f 7f 7d 7f     ............}.
    24a5:	7d 7d 82 7f 7f 83 81 81 80 81 83 80 80 81 81 7f     }}..............
    24b5:	7f 80 7e 7f 7f 7c 7f 7e 7e 7e 7e 7f 80 7f 7f 80     ....|.~~.....
    24c5:	80 82 81 81 82 81 7f 80 7e 80 81 7c 7d 81 7d 7b     ..........|}.}{
    24d5:	7e 81 7e 82 81 80 81 83 81 81 83 83 80 81 81 80     ..............
    24e5:	7f 7f 80 7e 7e 7e 7c 7e 7d 7d 7f 7f 7f 80 81 80     ...~|}}......
    24f5:	81 82 82 82 81 80 81 7f 7f 7e 7f 80 7c 7e 7f 7d     ...........|.}
    2505:	7f 7d 7e 80 82 81 7d 7f 84 7f 7e 82 82 82 7e 7e     .}...}......~
    2515:	84 7f 7c 82 7f 7e 7f 7e 7e 7e 80 7e 7c 80 80 7d     ..|...~.|..}
    2525:	7c 82 81 7e 80 82 81 81 7e 80 80 80 80 7e 81 82     |............
    2535:	7e 80 80 81 80 7e 80 82 7e 7f 81 7e 80 81 7e 7f     ...........
    2545:	7f 81 81 7d 81 84 7e 7e 82 81 7e 80 81 7e 7f 7d     ...}..~.....}
    2555:	7d 7f 7d 7f 7e 7d 80 7e 7d 80 80 7e 80 83 7e 81     }.}.}.}.....
    2565:	85 81 80 81 83 82 7e 7f 83 7f 7e 7f 7f 80 7e 7c     ............|
    2575:	7f 80 80 80 7f 83 83 7e 7f 82 82 7f 80 80 82 7f     ...............
    2585:	7b 7e 7f 7c 7d 7e 7e 7e 7f 7f 7e 80 83 80 7f 84     {.|}~.......
    2595:	84 81 81 81 82 80 7f 80 80 7f 7e 7e 7c 7e 7e 7b     ..........~|~{
    25a5:	7f 80 7d 81 81 7f 83 81 7f 82 81 81 7e 80 81 7d     ..}...........}
    25b5:	7e 80 7d 7f 7e 7e 80 7e 7f 82 7e 80 83 81 80 81     .}.~........
    25c5:	82 82 7f 81 83 7d 7e 81 7c 7d 7e 7d 7c 7d 7e 7e     .....}.|}}|}~
    25d5:	7c 7e 81 7e 80 83 80 81 82 81 7f 80 81 7f 7f 80     |.............
    25e5:	7e 7e 7d 7e 81 7e 7f 82 80 7f 81 81 80 81 82 81     ~}...........
    25f5:	80 80 81 7f 7f 7f 7e 7f 7e 7f 7e 7c 80 7d 7d 80     ........|.}}.
    2605:	81 7e 7e 80 81 80 82 80 84 81 7f 81 81 81 81 7e     .~............    2615:	81 7f 7e 7f 7f 80 81 7f 81 83 81 7d 83 7f 7b 7f     ..........}..{.
    2625:	7f 7b 7b 7f 80 80 7f 84 82 7f 80 7f 7c 82 84 7e     .{{.........|..    2635:	82 7e 80 7e 7c 7d 80 7e 7f 7f 80 87 82 7e 86 85     ..|}........
    2645:	7d 81 80 7f 7e 7c 7b 78 7a 81 7b 80 8f 7e 7a 8b     }...|{xz.{..z.
    2655:	87 7e 81 80 78 77 79 7d 7c 88 8b 79 79 83 80 79     ...xwy}|..yy..y
    2665:	7e 82 7e 7a 7e 7b 7c 87 85 81 85 84 83 85 83 84     .z捕返傅赋锋枫蜂蜂饭蜂峰锋覆赋封枫赴锋捕傅丰峰覆峰封封蜂锋副赋赋覆赴覆副赋捕沟阜付覆赴蜂丰贩丰蜂封峰覆赴蜂复赋鼹捕岬赴傅付赋傅复锋副副锋副副蜂蜂峰枫捕獾锋赴赴覆赴蜂蜂峰枫蜂锋丰枫锋丰枫捕愕副锋锋赋赋赋赴副复覆覆复赋副副峰捕涞锋赋覆傅腹父复覆赋覆峰峰覆锋蜂枫捕宓饭贩犯范范丰贩反范范反贩饭饭蜂锋鼬鲻黥鲻赭捕娴丰封赋傅付搞告拱勾苟垢贯广光狗钩卜暗镐父赋峰饭返舵斗侗点滇倒倒滇靛恫躏玑苴儋谵卜钡抖豆舵饭赴覆羔贡钩构岵岵岬徨徭峁骈稆卜驳峁峁规垢沟糕赋锋烦豆抖典蹈倒刀刀箝孑刭种卜车典点垫斗豆垛繁凡凡反返贩饭枫覆阜蒈哏殡耱螋貅卜吹搞勾光岵徙舛忉飧忖忏獠峁岬狗腹蜂卜档跺洞倒当淬锤捶翠村蛋靛洞冻躲烦凡钿傺倘峭涡掬沆篁卜兜返封枫枫锋赋复付镐勾贯岢後獬夤獬觖卜返獯夥徙岜规勾父副繁豆冻滇捣荡存挡耖阙自弦卜傅刀刀典兜斗垛钒烦返返饭饭丰赴复阜种蒎珉痼貂卜沟镐勾广岢岣獗舛徕峁徜岵苟沟搞赴饭卜岬垛抖恫滇点典滇冻豆陡钒饭贩贩丰犯腈廒茌阢殍瘗鼢卜獾范返返范反范封蜂副羔拱狗逛岬徨岣鲺貊赧卜愕岵岣岜共稿羔锋饭钒豆陡冻冻斗抖陡痖桡沌骅卜涞繁凡反蜂锋封枫枫饭范范范返返贩丰耱酏鲻鲺貅卜宓枫副父镐贡狗岚岵光广瑰勾糕糕付赴卜娴封烦繁舵夺躲朵垛钒返反丰锋枫饭丰篑镪祉腽豸哺暗丰贩范犯饭贩犯封枫锋复父镐拱苟瑰黯鼬哺钡瑰垢贯贯贡镐稿腹复赴丰犯烦舵舵躲箫镬哺驳抖豆夺陡朵繁跺躲舵钒舵繁贩饭封锋骈觇眈铎镳锺鼯哺车赋付羔告共勾构瑰岵岫岵岚岚广沟沟哺吹共糕傅峰饭返朵夺抖靛碘点滇点侗恫蹴赕捋苴茚哺档侗洞兜陡躲繁范丰赴阜搞贡苟构光规徜彖祚鳅哺兜岢岫後徕岢岜岢广沟苟共傅蜂丰凡夺蜿哺返豆抖典滇垫典典兜斗冻兜陡兜洞夺跺殒葳咻蒎玢彖邃觐哺傅舵返峰副复搞共钩贯岬後獍忖忏徭後秕哺沟徕光羔搞父反朵钒豆侗洞冻碘典冻侗繇痖徜阚葶哺岬斗范饭返范犯繁垛垛夺斗斗垛舵返封琏貊耠腙珑腼觖哺獾锋傅稿贯岬獠惆沅沣忏忉忉岜糕稿赴哺愕兜侗栋挡翠蛋淬瘁档靛冻反付羔搞贡遽嘁托淌辙泗哺涞告复峰丰朵斗陡洞冻陡豆夺反峰付贯礴桎汨殛酤哺宓徜忉汊溽浞愕愦惚广阜搞凡档倒当炽蛘傺哺娴冲吹幢捶蹈洞烦父苟规岽岜光贡付丰九燎劁螽补暗躲洞垫滇荡刀碘典斗返赴共後忖沣溷熹呲灾圯珲补钡溷沣愕愠岢复赋凡党村粹冲斥创垂翠蛴嗡净纳补驳点舵覆拱广徕徭岬逛沟付烦斗靛挡淬茱箸抟补车蛋翠粹捣冻陡饭告岵夥汊溻宀涔汊沣型俗汨补吹獠傅副饭蛋粹当虫充锤翠党垫钒阜钩兴芽饺陀唣补档广獗獯岣岬构赋凡侗蛋垂闯幢捶炊翠蜥猩昧瞧补兜点兜钒阜广徭愦浞宀宄涠沔愎岵覆赋苠甬补返躲粹挡翠虫锤当荡典夺锋拱勾岬舛徕焖彝咳言蓐补傅岢岵搞凡抖捣创窗窗窗床垂档典陡犯蜴啄览缆烧蓁补沟糕广獍愣浞灞滏涞洳惆垢父覆侗党蹈嵊补岬垂锤党档倒洞钒副糕勾後徭岢岽广付扇诱黉甬补獾凡侗党垂充冲捶窗翠栋垫垛傅拱瑰忉蜥由骄抢袜唠补愕沅溽滏涓浯沣峁告阜跺刀刀翠创淬村钪滞奶补涞挡点斗贩赋搞岵徭岫岬岬共锋舵靛挡臆琪镛补宓瘁吹捶炊淬点侗豆副拱规獯愣浞溴浯逝瞧誊衢补娴沅沣徨告付烦碘荡翠创粹淬存倒恫舵筵酝乃滔兮册暗封覆勾岢逛瑰岵共复饭洞点捣粹翠挡滠姿鸵册钡挡侗躲舵赋沟广徨怃惴浯沐悴愣舛勾裔祜册驳腹峰斗典荡瘁存村翠捣典兜凡贩傅垢巛允衔妥蒎蝼册车垢垢岚光告复返垛洞倒档捣档典抖陡蹼滟兆蛰骅册吹反赋糕构峁舛愠愣惚愕愠岣苟共副躲舢册档冻滇捣荡村挡滇碘恫朵范复告共构广阙自我谯忭霎册兜构共阜蜂饭跺冻洞冻典栋侗恫陡躲凡钽溷萼徕桁册返副糕苟岣徭獬忮愠飧獠獠岣贯镐覆封册傅朵点荡当垂创锤挡碘洞繁锋羔钩狗垢碥匝赡纫垆癞册沟构垢告阜锋返垛恫倒档档刀典豆犯腹蹼赓照州轼册岬光峁飧愕惴愣愣惆獯峁光羔封舵靛存镛册獾淬锤床吹蛋蹈恫钒丰赋糕稿镐稿糕付倘屡胸怵册愕副饭烦舵陡侗侗冻抖朵饭阜苟岜徕夥箫栳徙骓册涞忮忖忉飧徨岫逛糕副封躲垫碘档蛋荡爝壅性册宓刀碘斗凡贩赴父父腹腹复赴峰凡躲跺舟珧鳟蜢册娴洞典恫侗垫陡凡枫镐广後獠怃愕惚怃漭忉哞螯测暗忮獗岱瑰腹丰烦恫党蛋瘁捶翠档点夺筲有是驼荜测钡饭赴付贡共稿镐腹赴封反陡恫垫蹈捣翳膺刈测驳靛冻夺封腹沟岣獯飧惚愀惆飧舛岣构捭犒测车勾锋躲躲垫翠当当淬蹈栋恫烦锋赴阜祆咄蜒特噔螽测吹告镐羔腹副丰丰繁洞兜恫捣靛洞恫烦皲邂邹溻测档赋父光徨徭夥愠悴忏夤獍岽光稿贩垛麟测兜陡捣粹当蛋蛋点恫豆封赋副糕钩稿羔枳搜行茆辂测返父峰丰范豆垫恫垫倒侗斗躲蜂父告岬鲩哜哔徵忑测傅徭徨飧惆忖飧獠岱规苟赋钒朵兜档当痦逭测沟荡当刀靛恫钒峰锋赋拱钩稿糕傅赴枫匝洲怵测岬繁洞冻恫碘碘栋陡反枫阜贯峁徭獯忮皲汊圹噼酎测獾愕怄舛獍岱瑰告贩朵夺倒翠存蛋挡捣黜曩拖幸测愕点斗贩蜂锋糕沟勾拱搞阜覆贩夺洞恫茜鼾麝溻测涞碘刀倒栋斗繁蜂镐岚徙獍忖惴愦怃夤壑汆珩测宓獍岱光傅烦舵侗存翠村淬当捣垫舵封箫嵯臀萄走稃测娴封付沟沟共拱糕付副钒洞斗典党蹈倒痄巛迂层暗栋朵烦赋构岫徙獾惚惴惚忖夥徙岢贡囗螽层钡犯钒豆荡淬村淬村档碘豆丰峰覆钩构痖蕴翁握坶层驳沟钩告父复犯抖冻侗挡蛋刀蹈冻钒丰驺嵋兄劂瘊层车稿岽徕獠惚汜愎悴怃獯峁广赋钒躲滇痨层吹垂垂垂捶村荡靛繁蜂锋搞光光构狗拱缮汕卧揆层档糕赋烦抖冻碘蛋当荡蹈兜钒枫共岬徜箧阚醒载屦层兜夥愕沅愎愠怃獠峁构蜂钒夺党捶炊创痍忧颇层返捶村党恫返蜂覆贡广广光狗拱搞赴舵俏逾觚层傅洞垫刀翠存党滇抖烦赋构徕獠忮汊浒溥滞嫌阪螽层沟汊愦忏獗岫共范垛恫粹幢床窗吹村档鲭馑谅琅握层岬斗枫赴阜构规瑰光狗拱糕枫斗恫典翠琰玮萃层獾垂淬蛋碘抖烦腹岚徭舛愕浒涑沅愦怃商雄骟层愕獗岵搞凡陡滇创充炽炽闯淬刀垛蜂覆蜩谀郊济讨臊层涞稿逛岵岵规垢共糕犯兜栋档锤炊吹粹遴杖婆层宓倒冻烦搞岚獗怃汜涑涓洳愣惆獠岜搞巽螽层娴凡冻刀闯翅彻斥床淬蹈垛峰阜共瑰岽蜚置汗宦特膻蹭暗岬岚构共羔饭抖靛党捶创闯垂刀侗繁孓忧拿芍狁蹭钡羔瑰獠怄汜浯溻涓汜愦獾岽共范恫蹈鲡蹭驳炊彻撤掣冲垂档兜丰羔贡广岫岣岬逛乒犯旧斟蹭车沟糕峰躲碘当垂幢虫吹蛋典跺副苟徭燠焉量判蓊蹭吹惆愎涠滗溴涞愎忉後贯锋兜倒粹翅炒遒撕蹭档炒彻吹蛋点烦付告光岬後岣岵狗镐复垂判荏蹭兜朵碘党捶虫斥炽捶刀洞犯共峁怃沅浞碹忧炕记咒蹭返灏宥灞洳愣獯岜镐钒倒村冲潮叉巢翅鹳尉悲埠蹭傅捶党洞枫搞苟岚峁徙岱逛共父封兜档怯潼逭蹭沟淬闯炽彻窗翠点朵副光獬惴洳溴宥宸堂脊劳茼蹭岬灏浔愠獍逛付斗档垂撤插蹭潮斥锤档缯煞被日蹭獾陡锋镐苟岜峁後岬贯稿复返栋当垂幢璁踵焉蹭愕斥充创荡兜返搞岬忏沐涓宄甯遽溴沣唤脑艴蹭涞怃峁苟枫典存床巢测册巢冲垂捣躲副菹虏簿勺飚蹭宓稿苟岵岱岣岵沟糕赴舵点存锤幢虫闯镘先量蹭娴淬典跺锋狗徨愦涞滗宓邂遽涔愀夥岽梯町插暗拱繁档垂充叉哺册炒窗粹倒舵赋镐勾裾山í蠢速锂插钡岚岬岽广告付枫夺捣翠锤幢幢炊挡洞曜腿亮埔插驳反傅规舛汊涔滏宸邈宥浯愠獠岚腹夺舢插车当锤翅层补层撤吹存靛凡阜告狗岚岵讶含┈放限虍插吹岢构搞覆范斗档淬垂创炊淬捣躲蜂告鲧仗赡铺嘴插档岱怃洳溷灏宓骞宀沅夤後垢副垫锤幢呷插兜车册捕补彻捶蛋垫范羔共狗瑰岵岵狗氮Ι骨羞霎插返付赴贩兜档粹锤瘁粹存靛反傅狗徜愦麇账仁讼摁插傅溻宀宄甯邂宀汊舛岬苟锋滇闯冲吵补诿境插沟驳驳撤粹当靛范腹钩垢贯逛岚沟覆犯ゥ匪艳霎插岬繁恫挡捶闯垂村蛋垫贩糕岚獬愣灏骞疋仪蒙涡喵插獾宸甯甯宀沣獯规稿蜂碘冲彻潮测补驳劬贡━插愕车存滇洞犯羔构规光垢贯勾副繁陡典迪阡耔插涞党锤冲床蛋刀冻犯告徕忏沐宓邋邃邈尤韭兄泺插宓宸滗愀獍沟赴繁荡掣插测补叉叉彻捣裨府┋棺插娴垛反复贡广岬广告搞傅贩冻刀村瘁垂媵縻治噬叉暗床吹捣兜凡傅构徨愕浯宓邋遽甯宄涞屡族虍叉钡忮岽稿丰躲刀斥插插吵扯扯虫碘贩锋熘划扯犊埙叉驳阜共贯逛稿枫返朵洞档粹党点点滇典蹴湔擞苘谳叉车躲蜂赋糕岵忖沅滗骞遽涓愕怃徨赋栋忑叉吹兜垛陡栋蹈豆付副垛跺范凡冻蛋档斗咫栲亻腩鲵阈甄叉档档充粹兜夺斗跺傅逛沟锋枫赴钒碘荡战隋赙町疔叉兜洞蜂贡岫汜遽娉邃浯怃忏光蹈虫蹈繁潺乜伛叉返返舵返构徭钩繁陡抖蹈冲层锤豆碘淬躏醍耔尕粳乳厶叉傅洞赴峰垛斗贩傅犯抖陡范范豆躲傅岢洚腌鳟骅鲻殪叉沟夥沣宓邈邂溷後腹复豆掣撤豆贯獠徨楦烽叉岬规岣岱饭幢驳驳撤窗捶斗镐苟赋舵洞隶シ狼绠镤叉獾洞靛蛋党舵傅稿父锋锋峰烦反稿飧溻滢杏锂篝叉愕宓宕宀浔垢凡抖存床挡峰徙沅悴岫贯蜴下隐叉涞糕冻车倍扁幢典垛丰赋副犯侗垂瘁冻愕凛膪嵘抒叉宓凡峰搞沟逛沟烦典冻朵枫沟惚宕遽宓蟒筝沩叉娴浒岚范陡荡充村付忉浯浒獍共饭党哺鲨越萎莹嘲暗钡备翅凡沟岵岵沟饭蹈吵膊炒刀范勾候爻⒋嘱嘲钡徨怃夥垢躲挡当蹈反岵涞骞宥宓汊搞煲沿舢嘲驳栋挡虫扯挡贡愕滗愎光贩靛虫渤卞潮嘁慷耶鬓浚嘲车躲徕愎惴獍糕栋撤扁备叉典腹岣夤怃飚喾莓嘲吹後赴党炽床典付忖宥遽甯宄徙碘充翅蛹螺劢嘲档吵炽冻岣溷宄惆傅捣床撤潮炒党贯溻臣惝茁繁从嘲兜娑宕獍朵斥脖便便车舵岫惴惴徨付点砘‘碉嘲返吵泊巢点构涑遽骞骞涔镐吵贬捕炒淬长曹钞Υ嘲傅范忖宓宸愠饭炽测吵充瘁跺獠姘骀邂霎极辰暑嘲沟岱当舶舶测潮淬副獾涞沐岫斗嘲惫舶碧绨嘲岬炽舵後涔邂邂邂汜舵贬颁卜创恫傅愕硷锂拟嘲獾遽遽愠夺驳卞潮吹碘饭獯姘骀宸构冲辚迸垸嘲愕辨哺掣垂垫覆徜沅汜规档扁背叉滇糕ǜ蛇债诋嘲涞忉灏娌姹邂忉典辈般巢滇犯拱惆宸宓莓糙嘲宓獾倒惫贬潮当跺复徨灞驸灞告炒便膊佼毖町串嘲娴彻栋贩腹岽忮惚光粹北板吵凡岽愕滏灌鳟水瞅潮暗姹娌骞夥靛倍颁掣夺糕广夤涠浞峁党蕻戈潮钡北卑捕村犯镐峁浔邋宕岜闯舶舶巢抖ξ叉潮驳阜贡光後舛岵垫辨卑蹭反徕惚汜溷骞弋舢潮车宓惴赴炒钡巢冻糕光岫獾忉岵冻便肮串层惝潮吹渤存复瑰徙忮涑涓舛兜插补叉恫构岫Ｏ瀹┋猱潮档岜瑰规构钒嘲卑扁蹈岵愠愀汜涑溽涑鸢禺潮兜獗跺哺贝车洞父规徙獯獗贡党卞惫巢瞑典赢潮返栋拱後怃浒涓沣规党册卜车烦岱獗峁喈营У螽潮傅广告蜂存扁扳蹭凡獠汊愀愠惴浒沐獬袭虍潮沟凡插贬潮靛傅岢獯怃舛共捣补渤炒点虍鞭砖４潮岬糕徙汜滗涔怃傅幢膊辨插朵後忏獬逛立懋潮獾覆抖创便辈彻丰飧涓沐忉獾忏沣沐岵婺国潮愕刀捕驳捶返光徨獠徨钩豆冲卜补吹贩枝デ醍榫З坯潮涞後浒溷汊峁封炊测补翅跺岫愠忖广繁偏┖町潮宓瘁扯册蹭蛋腹怃涔浒徭构逛獠沐沐岬识挟潮娴垫炒巢粹凡搞狗苟拱蜂侗吹掣幢垫告叽菜虍崤噶弋巢暗飧汜惆岽赋洞粹创挡躲勾獗夥岚范淬渌囊飚鎏巢钡蹭蹭窗垫告忉沔沅獍阜返赴岵汜溻愣肋醍巢驳傅翠车翅当陡蜂付稿羔贩典村垂倒蜂偷貉椠鬏紊冽巢车逛獍獍规腹范洞滇侗凡阜瑰岫岚赋垫鲣卺虍巢吹床翅村朵镐峁夥獬岜付反丰狗忮溻浞潞雾酊巢档獬垛吵脖哺存返钩岜岢狗枫倒窗斥淬氤〃硝倮惶巢兜范逛獬忉徨光付朵倒当典范贡岢岫垢霎碣演霎巢返蜂栋蛋挡恫范父苟广贯告覆枫羔岱惚嘈意霎巢傅愀獍覆粹插彻捣封贡逛广苟傅陡垂斥水棺枭巢沟吹豆垢夥惆舛岵稿蜂夺蹈蛋蹈范广夥砰曦胸霎巢岬忉岢封党创粹靛范复付付付副饭反饭幽宿霎豉巢獾贡獠愎惴峁蜂挡创蛋斗犯锋傅搞钩贡夷戌巢愕丰典翠挡跺共岣徙岫广沟稿峰豆碘靛萃翌檑巢涞饭狗徕後钩烦垫侗垛烦舵垫荡碘夺封筮犭箫咴坳巢宓傅复搞岜飧惴怄岵傅跺典碘栋洞躲丰钶坂潇巢娴稿岜岽稿陡垂闯倒枫广徨獗徙岫逛糕枭觅吵暗跺存闯蛋范岢忏夤岢副冻村闯冲充淬钕眯霎阄镁教吵钡斗付逛岽构阜蜂覆稿光岚规岚岢岚镐绠吵驳凡捣锤村陡糕岬後垢枫斗栋垛蜂镐狗蜃任璁玎臊吵车广规岜构副侗锤创点赋岢獍後沟饭栋崛能吵吹粹充窗当跺告峁獠岫腹陡党蹈烦告岜私姥町栌伢吵档峁徜獬獾徙钩垛垂充当返垢峁岱广糕肷窖醍吵兜犯抖倒档恫犯告岜岬贯羔范冻倒捣垫尜这鲢僮吵返凡腹光岵广镐枫躲冻恫垛犯付稿搞复虍煦怆吵傅贩夺兜躲赴苟岽岢构钩狗广逛沟阜反麝屐吵沟豆洞斗朵反封覆糕糕复贩豆侗斗返付殇珥酐鏖徵醍吵岬沟构钩父封繁夺洞洞舵复光徕峁垢赴耜滗锂吵獾朵冻侗斗凡赴搞勾钩付贩夺抖朵饭赋磴徵虍麝骓吵愕腹父复覆傅镐垢广狗镐赋范躲斗豆反鲮玳吵涞覆告钩贡糕复蜂饭范返贩封赴阜羔糕鲺鼷吵宓羔傅锋犯凡钒烦封复镐贡拱搞付赴丰蝠篼吵娴繁恫蹈蹈侗舵峰羔拱贡糕蜂舵抖冻垛疋刎犸镦汶炒暗封镐瑰岣峁岬瑰勾腹赴范躲夺舵峰告鲮觑炒钡光瑰垢镐锋凡斗侗侗夺犯阜贡共稿阜蜱後犋炒驳锋贩舵陡陡舵蜂糕苟狗贡付丰钒躲朵黠梃稞痨炒车返蜂赴赋覆覆复复复赋赋峰范跺躲繁觚鲱祚炒吹蜂付腹羔阜复傅付傅傅傅复阜糕搞羔炒档付覆覆赋赋赴峰枫丰犯返繁繁犯锋付躐聒炒兜父赋枫贩反返饭蜂赋腹告贡告腹赋赴黥貔炒返锋副副赴锋蜂饭饭封封范钒躲垛跺钒鲳祀铕炒傅朵跺范锋腹稿搞阜赋副赋父搞拱勾苟眍霎炒沟苟沟共镐阜赴枫丰贩范范范饭蜂锋锋黯鲻炒岬赴峰丰丰枫锋副赴锋赴副副赴蜂饭贩炒獾范犯丰枫峰赴赋复复覆副锋蜂封封蜂鲽炒愕赴赋付傅傅赋锋丰范烦烦范丰峰覆复鲶篥炒涞傅傅赋覆副覆赋傅腹搞稿镐羔腹付复炒宓副蜂犯贩犯饭丰枫峰副覆赴蜂丰枫峰鼬炒娴覆复复赋赋赋覆赴峰封饭饭犯犯饭封车暗峰覆复复覆副锋枫丰丰丰封蜂峰锋副车钡副锋蜂封饭丰枫锋赋傅父父父付赋副车驳赴赴副赋傅阜父阜复覆副赴蜂枫丰丰车车枫峰锋锋峰峰蜂蜂蜂蜂峰锋赴副覆赋}}}.....
    3545:	83 83 82 80 7e 7d 7d 7c 7a 79 7b 7e 81 83 82 81     ....}}|zy{....
    3555:	80 7f 7d 7b 79 79 7c 80 83 85 86 84 83 80 7e 7e     ..}{yy|.......~
    3565:	7f 80 80 81 81 81 82 82 82 80 7e 7d 7c 7d 7d 7e     ..........}|}}    3575:	7f 81 82 84 83 81 7f 7f 7e 7d 7e 7d 7d 7e 80 81     ........}}}..
    3585:	83 83 82 80 7d 7c 7c 7d 7f 80 81 82 83 83 83 82     ....}||}........
    3595:	80 7e 7d 7c 7d 7e 7f 7f 80 80 81 80 7f 7d 7d 7d     .}|}.......}}}
    35a5:	7e 7f 7f 7f 80 81 81 82 83 82 82 81 7f 7f 7f 7f     ...............
    35b5:	80 80 80 7f 7f 7e 7d 7d 7d 7d 7e 7e 7e 7e 7e 7f     .....}}}}~~.
    35c5:	80 81 82 82 82 82 81 80 80 80 81 80 80 7f 7e 7d     ..............}
    35d5:	7d 7d 7d 7e 7e 7f 7f 7f 7f 7f 80 81 82 82 82 81     }}}~...........
    35e5:	80 80 80 7f 7f 7e 7e 7f 80 80 7f 7e 7d 7c 7d 7d     .....~....}|}}
    35f5:	7e 7f 80 80 81 82 82 82 82 82 82 82 81 80 80 80     ...............
    3605:	80 80 81 81 80 7f 7e 7d 7d 7c 7d 7e 7f 80 80 80     ......}}|}....
    3615:	80 7f 7f 7f 7f 7f 7f 7f 7f 80 81 81 80 80 7e 7d     ..............}
    3625:	7d 7c 7d 7d 7e 80 81 81 82 82 81 81 80 80 80 81     }|}}...........
    3635:	82 82 82 82 82 80 7f 7e 7c 7b 7b 7b 7c 7d 7e 80     .......|{{{|}.
    3645:	81 81 81 80 7f 7f 7e 7f 80 81 82 83 83 82 81 7f     ...............
    3655:	7e 7d 7e 7e 7f 7f 7f 7f 7f 7f 7f 7f 80 80           }~..........

00003663 <ahmed_samples>:
    3663:	7e 7e 7e 7e 7e 7f 7f 7f 7e 7e 7e 7e 7e 7e 7e 7e     ~~...~~~~
    3673:	7f 7f 7f 7f 7f 7e 7f 7f 7e 7f 7f 7f 7f 7f 7f 7f     ..............
    3683:	7f 7f 7f 7f 7f 7f 7f 7f 7f 7f 7f 7f 7f 80 80 80     ................
    3693:	80 80 80 7f 80 80 80 80 80 80 80 80 80 80 80 80     ................
    36a3:	81 80 80 81 81 81 80 80 81 81 81 81 81 80 80 80     ................
    36b3:	80 80 80 81 81 81 81 81 81 81 81 81 81 80 80 80     ................
    36c3:	80 80 81 81 81 81 81 80 7f 7f 80 80 7f 80 80 81     ................
    36d3:	81 81 82 82 82 81 7f 7e 7d 7e 7f 80 82 83 82 80     .......}......
    36e3:	7f 7e 7d 7c 7d 7f 80 81 81 81 80 7f 7f 7e 7e 7e     .}|}........~    36f3:	7e 7f 80 81 81 80 7f 7f 7e 7c 7c 7e 7e 7d 7e 80     .......||~}.
    3703:	80 7f 7f 7e 7d 7c 7d 7e 7f 81 86 8a 89 84 7e 79     ...}|}......y
    3713:	78 79 7b 7d 82 86 88 86 7f 79 75 76 79 7d 81 84     xy{}.....yuvy}..
    3723:	87 89 86 7f 79 76 76 79 7d 81 84 86 86 83 7e 79     ....yvvy}.....y
    3733:	75 75 78 7e 83 85 86 85 81 78 72 75 7d 84 8a 93     uux.....xru}...
    3743:	94 8d 82 77 6e 6c 74 80 89 8e 8f 8a 80 75 6e 6a     ...wnlt......unj
    3753:	70 7e 8b 92 92 8f 87 7d 74 6e 6e 75 82 8c 90 8d     p.....}tnnu....
    3763:	87 7f 77 72 70 73 78 7c 83 89 87 7f 81 86 86 88     ..wrpsx|........
    3773:	8d 89 7d 78 78 78 7e 85 8a 8b 8c 82 74 6b 6a 6f     ..}xxx.....tkjo
    3783:	7c 8a 90 90 8d 87 80 7a 75 70 72 7b 84 8a 8d 87     |......zupr{....
    3793:	7f 7a 73 69 68 70 78 81 8d 92 8e 8b 88 82 85 8e     .zsihpx.........
    37a3:	88 76 71 7c 83 83 88 8a 82 7d 7f 78 6b 66 71 82     .vq|.....}.xkfq.
    37b3:	8e 93 8f 89 84 7d 6e 64 68 76 83 8e 93 8c 7f 73     .....}ndhv.....s
    37c3:	6b 67 67 6b 77 8a 9a a1 9e 92 85 86 87 71 60 6f     kggkw........q`o
    37d3:	89 8e 97 9c 89 6e 6d 72 67 5f 6b 7e 91 a1 9c 87     .....nmrg_k....
    37e3:	7b 75 69 64 6d 74 7c 8f 9a 95 88 76 64 5e 64 6d     {uidmt|....vd^dm
    37f3:	81 96 9c 9d a3 9c 8a 87 84 67 5c 7a 96 92 99 9e     .........g\z....
    3803:	86 70 76 6d 53 53 67 7e 9c b1 a1 85 7a 70 61 5e     .pvmSSg....zpa^
    3813:	65 6f 8a a9 aa 9b 8c 75 5c 56 60 71 8b a2 a7 a6     eo.....u\V`q....
    3823:	a1 90 81 88 86 69 62 7f 95 8c 93 90 7f 76 7e 69     .....ib......vi
    3833:	49 48 5a 7e a7 b9 9b 78 67 60 5c 5d 65 77 97 b1     IHZ...xg`\]ew..
    3843:	af 96 75 58 55 6b 7f 89 99 a8 a7 aa b4 a3 66 38     ..uXUk........f8
    3853:	40 67 85 a1 b4 a9 97 82 5c 2a 21 39 6b a9 d1 c4     @g......\*!9k...
    3863:	93 61 3e 36 49 68 80 9a b3 b6 9e 7a 62 5b 65 77     .a>6Ih.....zb[ew
    3873:	86 96 a5 b2 be c9 a6 54 27 35 5d 80 b4 cc be 9d     .......T'5].....
    3883:	75 38 12 1c 41 8c d3 e0 aa 6b 44 37 43 5c 78 96     u8..A....kD7C\x.
    3893:	b9 bc 9a 77 62 5f 77 98 9d 96 9c b7 cc a4 5c 33     ...wb_w.......\3
    38a3:	45 5b 85 bb c7 b1 91 67 2b 14 21 5a ae e5 d8 9a     E[.....g+.!Z....
    38b3:	59 31 29 36 58 8b bf db c2 90 64 4b 52 7d 9d a3     Y1)6X.....dKR}..
    38c3:	b0 c4 d6 ba 68 28 31 60 78 a8 c3 b3 92 7c 50 29     ....h(1`x....|P)
    38d3:	20 3e 90 ce d3 9b 57 42 52 5d 62 6d 84 a5 b1 a3      >....WBR]bm....
    38e3:	8f 7a 74 85 96 92 8d a2 c5 b0 6c 4c 65 75 70 8f     .zt.......lLeup.
    38f3:	97 8b 8c 8f 63 46 3d 48 83 b7 b4 7a 56 5c 6f 74     ....cF=H...zV\ot
    3903:	68 5d 6c 92 a6 9b 93 8d 83 8c 9e a2 af b5 77 46     h]l...........wF
    3913:	53 80 87 9b b4 94 6b 65 5d 49 4c 57 88 b2 b6 9a     S.....ke]ILW....
    3923:	60 48 56 5f 6b 78 73 77 8b 98 93 8c 8a 87 89 8b     `HV_kxsw........
    3933:	8b a0 c9 b9 76 57 64 6f 6f 92 9a 85 78 7c 6a 52     ....vWdoo...x|jR
    3943:	4f 63 8c ab ab 7f 58 59 69 74 7a 77 72 75 7b 82     Oc....XYitzwru{.
    3953:	8f a0 a3 98 86 7d 97 bd a6 66 5b 7b 92 91 9d 87     .....}...f[{....
    3963:	5d 57 70 79 6b 6f 81 96 9e 98 74 51 52 63 79 89     ]Wpyko....tQRcy.
    3973:	86 7f 7b 75 72 7a 92 a2 a1 90 83 96 b7 9f 64 56     ..{urz........dV
    3983:	70 90 96 9d 8b 65 60 76 75 64 64 7f 9a a1 9b 75     p....e`vudd....u
    3993:	53 56 6b 83 85 75 72 7a 8c 97 87 7a 7e 89 94 95     SVk..urz...z...
    39a3:	aa bb 8a 5a 59 76 8f 8c 94 87 6c 6e 7c 73 63 5d     ...ZYv....ln|sc]
    39b3:	78 93 98 9a 71 51 60 72 8f 8e 74 63 6a 90 a6 9c     x...qQ`r..tcj...
    39c3:	8a 7a 79 83 94 b6 b5 70 57 69 9b 9b 86 8c 6f 5a     .zy....pWi....oZ
    39d3:	74 85 69 5b 6d 89 92 9d 83 4e 54 63 89 a1 97 7f     t.i[m....NTc....
    39e3:	64 6c 8f 95 88 84 84 89 8d a4 c4 91 4f 4c 86 ab     dl..........OL..
    39f3:	91 9e 96 5b 4a 73 7c 6c 78 82 7e 89 94 67 43 5a     ...[Js|lx...gCZ
    3a03:	7f 8e 98 9e 83 69 76 8a 82 82 96 a1 7b 68 a4 d9     .....iv.....{h..
    3a13:	99 45 4e 76 87 a0 b8 96 60 54 66 64 6a 75 71 87     .ENv....`Tfdjuq.
    3a23:	b5 a6 59 38 55 6e 83 a6 ac 94 86 70 5a 70 9e a1     ..Y8Un.....pZp..
    3a33:	9c 92 7e 8a ad 89 4a 63 97 91 8c a4 85 4f 57 72     .....Jc.....OWr
    3a43:	72 7b 89 74 64 7f 93 7c 68 67 68 78 96 a9 99 7c     r{.td..|hghx...|
    3a53:	60 6e 92 9f 8a 86 93 88 88 a6 9f 56 4a 8b a9 8a     `n.........VJ...
    3a63:	89 8e 6d 53 5f 6e 74 7d 71 68 84 96 79 5b 61 6f     ..mS_nt}qh..y[ao
    3a73:	8b a8 9a 7d 78 86 76 7d 9e af 85 64 8a a7 91 73     ...}x.v}...d...s
    3a83:	83 7d 78 90 9e 7e 6d 78 69 5b 6b 7c 6f 63 73 92     .}x..mxi[k|ocs.
    3a93:	92 66 4b 67 88 8b 94 a7 96 6e 72 8a 8e 7c 89 8c     .fKg.....nr..|..
    3aa3:	8f 94 9a 86 71 7e 8a 9d 8f 82 6e 7d 7b 6f 6a 7f     ....q....n}{oj.
    3ab3:	81 5e 5e 7c 82 66 67 73 81 90 88 81 91 99 71 72     .^^|.fgs......qr
    3ac3:	9a 8e 6f 7a a7 98 8c 7a 82 6c 6e 86 9a 94 88 9b     ..oz...z.ln.....
    3ad3:	7c 60 66 82 77 70 94 91 76 63 74 6a 64 6c 80 9a     |`f.wp..vctjdl..
    3ae3:	95 78 68 85 80 6e 72 89 9a a2 94 7c 89 8a 78 70     .xh..nr....|..xp
    3af3:	99 9d 81 77 8b 86 5d 5e 7b 88 7e 8b 89 7f 8c 85     ...w..]^{......
    3b03:	5a 66 9d 8e 64 8a ad 82 5a 70 7f 6b 6e 7b 89 8e     Zf..d...Zp.kn{..
    3b13:	88 62 66 86 83 5f 72 a7 aa 7d 66 7f 84 68 63 97     .bf.._r..}f..hc.
    3b23:	ab 8a 6d 7d 95 84 5f 5f 9a b0 89 80 ad 9a 5e 54     ..m}..__......^T
    3b33:	82 98 90 62 68 a2 94 45 59 a7 7d 40 6e a3 81 5e     ...bh..EY.}@n..^
    3b43:	69 7c 88 88 70 73 99 9f 6e 60 8c a2 7e 6c 8d 9f     i|..ps..n`..l..
    3b53:	7f 70 89 93 7d 78 8f 94 93 91 82 7c 8e 87 60 6f     .p..}x.....|..`o
    3b63:	97 94 74 77 7b 62 5e 79 7f 72 7e 97 78 68 78 7d     ..tw{b^y.r.xhx}
    3b73:	62 77 a2 99 84 93 9a 6d 69 89 95 88 84 8f 8d 86     bw.....mi.......
    3b83:	7e 88 84 7d 84 8e 76 77 9a 95 73 74 7c 77 7f 87     ..}..vw..st|w..
    3b93:	74 75 92 80 56 6c 87 75 66 91 99 7c 74 84 73 61     tu..Vl.uf..|t.sa
    3ba3:	87 92 87 8b a2 8b 6c 79 82 7a 78 90 87 7a 77 84     ......ly.zx..zw.
    3bb3:	7e 6d 77 85 87 82 82 80 84 8a 7c 78 84 8c 71 6f     mw.......|x..qo
    3bc3:	90 95 72 64 8f 8e 69 65 8c 81 69 73 83 7f 6c 73     ..rd..ie..is..ls
    3bd3:	86 80 6b 77 8f 80 68 7e 9b 8c 71 7e 99 89 68 72     ..kw..h..q..hr
    3be3:	9f 8b 78 86 96 83 7e 7f 71 75 8e 86 73 85 94 7b     ..x....qu..s..{
    3bf3:	6b 77 83 76 5f 73 8f 8a 6c 78 83 7a 6f 73 70 73     kw.v_s..lx.zosps
    3c03:	86 90 79 76 8a 94 72 6b 96 9b 86 7d 8d 86 98 9c     ..yv..rk...}....
    3c13:	85 7e 95 88 64 73 8d 73 68 9f a6 66 61 8a 6f 57     ...ds.sh..fa.oW
    3c23:	7d a0 85 81 84 7a 74 82 7e 70 72 8a 97 74 65 85     }....zt.pr..te.
    3c33:	9c 7b 73 9a a1 66 54 8e ab 85 6a 84 95 88 78 72     .{s..fT...j...xr
    3c43:	78 91 97 72 66 90 a0 64 53 92 ac 70 53 7f 98 80     x..rf..dS..pS...
    3c53:	6e 8c 94 7f 7d 8e 7d 6c 8f 89 6b 78 a2 85 63 7d     n...}.}l..kx..c}
    3c63:	96 7d 6a 7a 7f 79 78 75 73 7c 8d 85 74 76 89 85     .}jz.yxus|..tv..
    3c73:	6e 6b 87 99 7e 73 87 89 76 79 8b 86 84 97 8f 72     nk..s..vy.....r
    3c83:	6d 85 76 6c 81 99 86 79 79 6e 6e 82 88 6b 7c 91     m.vl...yynn..k|.
    3c93:	88 6c 7d 96 87 60 71 9e 91 6b 78 a0 92 7b 7b 8a     .l}..`q..kx..{{.
    3ca3:	7b 78 7f 8c 84 7b 89 8d 76 6c 81 7d 70 73 82 86     {x...{..vl.}ps..
    3cb3:	84 81 79 77 7c 75 78 82 7a 72 85 8d 85 7c 7f 84     ..yw|ux.zr...|..
    3cc3:	85 81 7d 7e 83 89 8f 93 85 81 85 79 70 85 94 85     ..}.......yp...
    3cd3:	7b 82 80 76 77 7e 83 7e 78 77 7f 7d 76 7f 85 82     {..vw.xw.}v...
    3ce3:	80 82 78 78 7f 82 84 80 78 7b 8b 8e 87 89 8b 85     ..xx....x{......
    3cf3:	7c 72 71 7c 87 83 85 8d 8d 81 78 74 75 7c 7f 82     |rq|......xtu|..
    3d03:	82 7d 78 82 84 7f 79 7a 84 83 7e 75 79 7e 83 7a     .}x...yz..uy.z
    3d13:	76 83 88 82 7b 84 8d 88 7b 7b 7f 83 82 81 89 8e     v...{...{{......
    3d23:	82 76 7e 7b 73 74 81 84 81 80 7d 7e 7a 7d 7e 7b     .v篝充吵饭锋复饭饭赴付赴范贩丰枫封封枫枫鲼充闯蜂峰锋饭封付羔赴锋羔羔赋副傅父阜充党付复副蜂副傅副封覆镐付峰赴阜阜蜂充冻丰覆傅枫犯枫封饭反钒跺舵繁舵钒贩麴铒耧瘅充烦蜂饭范蜂阜糕阜阜贡苟稿糕镐搞糕镐鳊充赋腹父阜父腹付副覆父阜覆覆赴赴峰封充钩反繁反反钒夺夺跺凡跺朵凡贩犯枫锋赳趑痍觐蝾眚鼬充岢复父腹搞镐稿镐搞糕镐糕阜羔稿稿搞充獬腹父羔父付副峰锋副蜂贩烦跺舵朵陡黧铒龛充愠斗垛跺垛躲朵朵跺烦犯枫锋傅镐告糕珉铍祉眍篪充涑告垢垢勾狗规规垢勾沟沟告父阜复赴充宄饭返凡垛兜侗洞侗靛侗洞兜豆舵钒烦躜脲徜徂徜彘镳充娉犯赴覆副傅羔告告勾垢光规岵逛苟苟冲俺垢勾搞搞稿羔赴饭贩烦夺冻侗侗冻恫黧赉後汊冲背栋侗抖夺垛跺反枫峰蜂副糕钩沟苟贯噌骊腩酎......
    3e23:	a0 a3 a2 9b 96 95 96 94 8e 8b 8a 87 7f 78 73 73     .............xss
    3e33:	6e 65 5d 60 63 5f 5b 5e 66 69 6b 70 77 77 7a 82     ne]`c_[^fikpwwz.
    3e43:	8a 8d 95 9c a0 a0 a7 ad a7 9b 99 9f 9c 94 8c 8b     ................
    3e53:	87 80 74 6c 66 60 57 53 53 55 58 59 5c 62 6e 76     ..tlf`WSSUXY\bnv
    3e63:	79 7c 81 86 88 8c 93 9a 9e a0 a2 a9 ae a2 95 9b     y|..............
    3e73:	a4 9f 93 90 92 89 78 70 6d 62 53 4b 4f 4f 4a 4c     ......xpmbSKOOJL
    3e83:	54 5b 64 6e 74 7b 81 84 85 88 93 9b 9e 9f a5 ad     T[dnt{..........
    3e93:	b4 ae 9c a0 ab a9 99 95 9a 8f 7a 70 70 60 4d 44     ..........zpp`MD
    3ea3:	47 49 44 45 4d 58 62 6c 75 7d 83 84 89 8c 91 97     GIDEMXblu}......
    3eb3:	9c a0 a4 ab b3 b0 9c 9e aa a9 9b 96 9c 91 7d 72     ..............}r
    3ec3:	75 62 4c 45 48 49 40 43 4e 57 5e 68 76 81 85 84     ubLEHI@CNW^hv...
    3ed3:	88 8e 91 99 9f a1 a5 b0 b7 b0 9c a0 ab a5 96 94     ................
    3ee3:	9c 8e 7a 6c 70 5e 4c 47 4b 47 3c 43 4e 59 60 6c     ..zlp^LGKG<CNY`l
    3ef3:	77 80 86 89 8c 91 94 9c a3 a5 ab b5 b8 ab 9b a4     w...............
    3f03:	ad a2 90 91 95 84 74 6d 6f 57 44 42 4b 47 3c 44     ......tmoWDBKG<D
    3f13:	51 5b 5f 6d 7a 83 86 89 8d 93 99 a1 a5 a6 b0 bc     Q[_mz...........
    3f23:	bd ab 9d a8 ac a0 8f 94 94 7f 6e 6a 6a 50 40 3f     ..........njjP@?
    3f33:	49 40 39 44 51 59 5e 6e 7a 81 81 86 8b 90 96 a0     I@9DQY^nz.......
    3f43:	a7 aa b3 c0 c1 ab 9e ad b1 a1 8f 97 96 7e 6c 6c     .............ll
    3f53:	6c 4f 3f 3f 4b 3e 36 44 54 5c 60 72 7c 82 81 85     lO??K>6DT\`r|...
    3f63:	88 8e 94 9d a2 a7 b3 c1 c0 b0 a6 b0 b0 9f 90 95     ................
    3f73:	91 7a 6b 6b 65 48 3d 3f 49 41 40 4d 5d 64 6b 7a     .zkkeH=?IA@M]dkz
    3f83:	81 87 85 87 86 88 8c 95 9b a3 af be c6 b7 a1 a5     ................
    3f93:	ab 9a 88 8d 92 7e 68 64 62 46 36 3a 4c 4c 4c 5a     .....hdbF6:LLLZ
    3fa3:	6c 73 75 82 87 8b 89 86 7c 79 7d 8b 94 9e af c2     lsu.....|y}.....
    3fb3:	cf ca ac 96 9a 90 7a 75 85 81 70 64 6b 5f 47 43     ......zu..pdk_GC
    3fc3:	53 61 5c 5e 66 75 75 7a 7d 82 7f 77 6e 6b 71 7d     Sa\^fuuz}..wnkq}
    3fd3:	96 ad c5 d6 dd d8 bc 86 74 73 5d 54 71 8c 84 77     ........ts]Tq..w
    3fe3:	83 88 6b 52 55 5f 59 58 60 72 7d 83 80 76 6b 5f     ..kRU_YX`r}..vk_
    3ff3:	55 4f 5f 75 94 b0 d6 e9 de d8 d2 9a 65 68 68 5a     UO_u........ehhZ
    4003:	5e 85 93 87 83 94 86 5a 46 4f 59 57 61 73 85 83     ^......ZFOYWas..
    4013:	7d 70 5f 4f 47 45 4f 6b 92 bc e3 f9 e8 da da b2     }p_OGEOk........
    4023:	66 50 5d 54 4f 72 97 92 84 92 9a 73 4e 50 5f 5c     fP]TOr.....sNP_\
    4033:	5e 6b 7b 80 7d 71 5c 4a 45 46 4a 64 8c b7 db fa     ^k{.}q\JEFJd....
    4043:	f6 dc d6 cc 84 42 43 53 4e 5b 8a a1 94 8d a0 8f     .....BCSN[......
    4053:	5f 44 50 5a 5b 68 76 80 7d 7c 68 4f 3f 47 4a 57     _DPZ[hv.}|hO?GJW
    4063:	77 a0 ca ed ff ea d4 d0 ae 58 37 4d 59 55 71 a1     w........X7MYUq.
    4073:	a9 93 93 9c 74 45 3c 53 59 5d 69 79 82 83 7b 5f     ....tE<SY]iy..{_
    4083:	45 3f 4a 4f 66 8b b3 d7 fa fc df c9 c9 97 43 3a     E?JOf.........C:
    4093:	57 5f 5c 8b b4 ae 91 98 90 59 33 37 4e 4e 5b 69     W_\......Y37NN[i
    40a3:	7b 83 8a 7b 59 45 48 53 54 70 95 b9 da f9 f1 d0     {..{YEHSTp......
    40b3:	bc c1 8d 3c 43 68 6b 68 9d c3 ae 8d 98 87 46 27     ...<Chkh......F'
    40c3:	31 43 49 5c 6d 7c 87 94 80 5c 47 4e 54 59 78 9c     1CI\m|...\GNTYx.
    40d3:	b9 d6 f3 e4 c3 b5 bb 7d 3c 4f 74 75 77 ac c5 a5     .......}<Otuw...
    40e3:	86 93 71 32 21 2f 42 54 6b 77 7e 8b 99 80 5f 4c     ..q2!/BTkw..._L
    40f3:	4f 52 5f 83 a1 b5 d0 eb db bc b6 be 75 38 54 75     OR_.........u8Tu
    4103:	72 7e b4 bf 99 84 92 5e 28 24 33 4a 63 7a 79 77     r.....^($3Jczyw
    4113:	8a 98 7d 62 53 51 52 67 8c a6 b3 cd e2 d3 bb b8     ..}bSQRg........
    4123:	c1 74 36 50 70 72 81 af b2 95 8a 96 5c 2a 27 2f     .t6Ppr......\*'/
    4133:	4a 6b 83 76 70 89 9f 87 6b 54 48 4c 67 8c a4 b0     Jk.vp...kTHLg...
    4143:	c9 e2 d7 be b7 c6 88 38 44 69 78 79 9d a7 93 86     .......8Dixy....
    4153:	95 6c 38 2e 2b 48 6d 87 78 69 81 a5 98 72 50 3f     .l8.+Hm.xi...rP?
    4163:	44 61 88 9d aa c2 e5 e6 cb ba c1 9c 45 35 58 74     Da..........E5Xt
    4173:	73 8c a7 a0 8b 89 72 3f 37 31 47 6b 86 7f 6c 7c     s.....r?71Gk..l|
    4183:	a4 9d 73 52 41 44 5e 80 90 9a b4 e2 ef d9 c0 bc     ..sRAD^.........
    4193:	b6 76 38 3d 5f 6d 77 9b a6 96 84 7a 51 3c 39 3d     .v8=_mw....zQ<9=
    41a3:	5d 7c 89 79 80 a0 a7 7e 53 3e 40 57 76 89 92 a7     ]|.y...S>@Wv...
    41b3:	d3 f1 e5 c4 ad b5 a3 5a 34 4f 6c 67 7f 9f 99 83     .......Z4Olg....
    41c3:	7e 6d 48 42 3d 4b 69 8a 8a 81 98 ad 91 60 45 3f     mHB=Ki......`E?
    41d3:	4c 67 7f 88 9a c4 ec e9 cf b4 aa ac 83 43 3a 5c     Lg...........C:\
    41e3:	6d 6d 8c 9a 8e 7f 7a 5c 45 42 41 5e 81 90 87 8f     mm....z\EBA^....
    41f3:	a2 9c 76 56 44 44 57 73 82 90 b0 da eb de c1 a7     ..vVDDWs........
    4203:	af a5 5e 31 4a 68 5f 72 98 96 82 7f 71 4b 44 3f     ..^1Jh_r....qKD?
    4213:	4e 76 98 95 8d 9d a5 84 5f 4a 3d 49 6b 84 8b 9c     Nv......_J=Ik...
    4223:	ba d5 d9 ce b4 a7 b7 9d 4e 30 4e 5d 55 7c 9f 99     ........N0N]U|..
    4233:	8a 8b 67 3f 38 39 58 8b ab a2 9b a3 97 6c 4a 39     ..g?89X......lJ9
    4243:	3f 61 87 90 8f 9b b5 c7 cc c1 ad b3 c2 8e 3b 2e     ?a............;.
    4253:	4a 4d 59 93 af a4 9a 8b 52 2f 2d 3a 68 a6 bc ab     JMY.....R/-:h...
    4263:	a6 a1 79 49 35 33 4e 80 9d 93 8d 94 a8 b7 c1 bd     ..yI53N.........
    4273:	b8 ca cc 83 2a 21 39 41 64 a8 c4 b7 a9 88 42 20     ....*!9Ad.....B 
    4283:	21 35 72 bd cf bb ad 91 58 2e 27 33 5d 95 ab 9e     !5r.....X.'3]...
    4293:	92 8f 9a a7 b4 ba c5 d9 d2 7b 1f 15 28 39 6b b3     .........{..(9k.
    42a3:	cf c7 bb 8e 39 17 16 27 75 cc d7 c1 b2 8f 52 25     ....9..'u.....R%
    42b3:	1b 26 57 99 b9 ae 9d 90 92 9d a8 b0 c0 da d9 81     .&W.............
    42c3:	20 10 1f 34 69 b2 d4 d4 cd 9c 39 14 14 1e 71 d1      ..4i.....9...q.
    42d3:	dc c5 ba 9b 59 24 13 17 46 94 c0 b8 a4 92 8a 92     ....Y$..F.......
    42e3:	97 9c ae d0 e2 a2 30 08 16 33 63 a4 d0 d5 d4 b3     ......0..3c.....
    42f3:	54 19 1a 1b 5f ca e8 cf c0 ab 73 2f 12 10 2b 7a     T..._.....s/..+z
    4303:	b9 be ad 9b 8a 85 88 89 94 b9 de c1 51 0d 11 33     ............Q..3
    4313:	5a 87 ba d0 d6 cc 84 2a 16 1b 47 ad e7 de c3 b0     Z......*..G.....
    4323:	99 5c 1c 0b 1a 57 a0 bd b8 a7 90 83 7c 75 79 92     .\...W......|uy.
    4333:	bf d8 a1 3b 0d 2e 57 64 8a be d7 da be 64 1e 17     ...;..Wd.....d..
    4343:	2b 72 c0 dd c4 ad b6 a0 47 11 15 31 78 af b5 aa     +r......G..1x...
    4353:	a0 94 86 72 60 5f 86 c2 d4 93 3a 2a 52 62 65 8e     ...r`_....:*Rbe.
    4363:	c0 db d9 a9 50 19 1c 46 85 b8 c3 b0 b1 be 90 33     ....P..F.......3
    4373:	16 1c 43 92 b6 b3 a7 a5 9a 76 50 41 53 8b cd e0     ..C......vPAS...
    4383:	ae 5e 41 57 56 4d 77 b8 df dd b3 68 2e 29 44 68     .^AWVMw....h.)Dh
    4393:	8c a5 b2 c2 c6 8c 37 1f 24 46 83 a7 af ad b1 9d     ......7.$F......
    43a3:	6b 3e 38 53 86 c0 e0 d3 95 5c 4b 48 49 6a aa d6     k>8S.....\KHIj..
    43b3:	d9 c0 8e 52 31 32 49 6e 99 b6 bf bb 8f 46 20 2d     ...R12In.....F -
    43c3:	4e 6c 81 9b b6 bd a0 6b 40 3b 55 7e b1 d7 de b9     Nl.....k@;U....
    43d3:	81 58 4b 50 67 99 c5 d0 c3 a4 70 3b 2a 40 6a 90     .XKPg.....p;*@j.
    43e3:	a8 aa 9d 87 5f 39 32 4b 61 6c 86 a9 b7 9e 72 52     ...._92Kal....rR
    43f3:	50 67 82 9d b8 ce c5 97 6e 5e 61 6b 8a b3 c5 ba     Pg......n^ak....
    4403:	9f 7d 55 3e 48 6b 88 8e 8a 86 83 70 55 49 53 62     .}U>Hk.....pUISb
    4413:	68 6f 82 96 97 84 71 6f 77 7f 87 96 ae be af 8d     ho....qow.......
    4423:	79 79 7b 7d 8f a4 a6 9c 8d 77 62 63 74 7d 73 69     yy{}.....wbct}si
    4433:	6b 75 7a 70 60 61 70 72 65 61 72 84 8b 8a 89 89     kuzp`aprear.....
    4443:	86 80 7d 8a a4 b3 a6 91 8c 91 89 76 76 8b 96 92     ..}........vv...
    4453:	88 80 7a 7c 7f 74 5f 58 65 74 76 70 6c 73 79 71     ..z|.t_Xetvplsyq
    4463:	5f 5d 6f 83 8e 94 98 96 8c 80 79 81 99 aa a1 92     _]o.......y.....
    4473:	95 9a 88 6e 6f 84 91 89 7c 7d 85 8a 83 71 61 61     ...no...|}...qaa
    4483:	6c 71 6c 67 6d 77 74 69 61 69 7a 86 8a 8f 99 9c     lqlgmwtiaiz.....
    4493:	95 8a 83 88 93 9a 96 92 95 92 84 77 79 7e 7a 6f     ...........wyzo
    44a3:	6f 79 83 88 83 7a 75 78 7e 7e 78 71 6f 6f 69 5f     oy...zux~xqooi_
    44b3:	5f 6a 79 84 89 89 8d 92 90 82 78 7f 8e 98 99 9d     _jy.......x.....
    44c3:	a3 a4 99 88 7c 75 6e 67 67 6f 7a 7e 79 73 75 7b     ....|unggozysu{
    44d3:	7e 7e 7c 7d 7f 7c 77 76 7d 87 8e 8f 8c 88 83 77     ~|}.|wv}......w
    44e3:	66 57 54 5d 6b 79 89 9a a5 a5 9a 91 8c 88 83 82     fWT]ky..........
    44f3:	87 91 96 91 88 81 7c 77 70 6a 6a 6b 6c 6d 73 7d     ......|wpjjklms}
    4503:	88 90 94 95 92 8a 7e 71 65 5f 5e 60 69 76 84 8c     ......qe_^`iv..
    4513:	8d 8b 8a 8a 86 80 7f 85 8d 92 91 90 91 91 8d 85     ................
    4523:	7e 7b 79 76 72 73 79 80 85 88 88 87 84 7d 76 72     鲵簌鲵吹吵钒钒钒烦犯蜂赴赴赴赴锋封范反范饭痧痼鲷鳄吹闯封枫覆羔拱贡告稿稿糕阜赋赋付腹糕吹党羔腹阜复蜂犯贩贩贩范贩饭封蜂峰锋鼢黯鼯吹冻锋锋峰封犯返反烦凡返饭枫封封封丰豸篁貔吹烦犯返贩峰付镐贡勾苟垢苟拱羔阜父付貅吹赋赴丰贩犯封枫枫蜂峰副副峰犯范范饭鼬鲻吹钩封峰锋赴锋锋枫犯返返犯枫蜂蜂蜂峰貂吹岢赴赴蜂蜂副阜羔父傅傅腹告拱镐羔糕吹獬搞腹副犯烦返犯丰丰饭丰封枫封饭饭篚吹愠枫锋覆覆副锋蜂枫封封封峰赴副锋峰吹涑峰赴覆副锋锋副赋副蜂封锋傅糕镐镐吹宄镐搞羔复蜂犯贩犯饭丰封枫蜂蜂枫枫鼬吹娉蜂蜂枫封封枫峰赴副副赋付父阜覆枫炊俺犯犯饭丰丰封蜂副复赋锋枫枫峰赴赴炊背副赋傅付傅傅傅傅赋锋蜂蜂峰峰枫封炊渤封蜂副赋覆锋蜂峰锋锋蜂封蜂赴赋傅炊吵傅赋副赴锋峰峰蜂蜂枫封丰封封封饭}|{z{{{y
    4643:	79 7b 80 85 87 87 86 86 88 8a 89 86 83 82 82 80     y{..............
    4653:	7d 79 77 78 7a 7d 80 81 81 7f 7e 7d 7d 7d 7e 80     }ywxz}....}}}.
    4663:	80 81 81 81 81 7f 7c 7b 7d 80 83 84 83 81 80 7f     ......|{}.......
    4673:	7e 7d 7d 7d 7f 7f 7d 7b 79 7a 7c 7f 83 86 89 89     }}}..}{yz|.....
    4683:	87 83 80 80 81 84 85 86 85 84 83 81 7e 7c 7a 7b     ............|z{
    4693:	7d 7f 80 7f 7d 7c 7b 7c 7e 80 82 83 81 7e 7a 78     }...}|{|....zx
    46a3:	78 78 79 7c 7f 81 80 7d 79 77 78 7b 80 83 83 83     xxy|...}ywx{....
    46b3:	82 81 81 80 7f 80 83 86 88 89 88 86 83 83 83 85     ................
    46c3:	86 87 86 83 7f 7c 7a 7a 7b 7c 7e 80 81 80 7c 79     .....|zz{|...|y
    46d3:	78 79 7c 7e 80 80 7f 7d 7b 7a 79 79 7a 7c 7e 7f     xy|...}{zyyz|.
    46e3:	7f 7e 7e 7d 7e 7f 82 84 85 85 84 82 81 80 81 82     .~}...........
    46f3:	83 84 85 85 85 83 81 80 81 81 82 83 83 82 80 7e     ...............    4703:	7e 7e 7e 7e 7f 7f 7e 7d 7d 7c 7b 7b 7b 7c 7d 7d     ~~..}}|{{{|}}
    4713:	7d 7d 7c 7c 7d 7e 7f 80 81 82 83 83 82 82 81 80     }}||}..........
    4723:	80 80 80 80 80 7f 7e 7e 7e 7e 7e 7f 7f 7f 7f 80     ......~~.....
    4733:	81 81 82 83 83 84 84 84 84 83 82 81 80 80 80 80     ................
    4743:	7f 7f 7f 7f 7e 7e 7d 7c 7c 7e 7f 80 81 81 81 80     ....~}||......
    4753:	80 7f 7f 7f 7f 7f 7e 7e 7d 7d 7c 7b 7b 7b 7c 7c     ......~}}|{{{||
    4763:	7c 7b 7b 7b 7c 7d 7f 80 81 82 82 83 82 82 82 83     |{{{|}..........
    4773:	85 86 87 88 88 87 85 84 83 82 82 82 82 81 80 7f     ................
    4783:	7e 7d 7d 7c 7c 7d 7c 7b 7b 7b 7a 7a 7b 7c 7d 7d     }}||}|{{{zz{|}}
    4793:	7d 7d 7c 7c 7c 7d 7e 80 81 82 82 82 82 81 81 80     }}|||}.........
    47a3:	81 81 82 81 81 80 80 80 7f 7f 80 80 80 80 80 80     ................
    47b3:	80 80 81 82 83 84 83 82 81 81 80 7f 7f 80 81 81     ................
    47c3:	81 80 7f 7e 7e 7d 7d 7d 7e 7e 7e 7e 7d 7e 7e 7e     ...~}}}~~}~    47d3:	7f 7f 7f 7f 7f 7f 7f 7f 80 80 81 82 82 81 80 7f     ................
    47e3:	7e 7d 7c 7c 7d 7f 80 80 80 80 81 81 81 81 82 82     }||}...........
    47f3:	82 81 80 80 80 80 80 80 80 81 80 80 7f 7f 7f 80     ................
    4803:	80 81 82 82 81 81 80 80 7f 7f 7e 7e 7e 7e 7d 7d     ..........~~}}
    4813:	7d 7d 7d 7e 7f 7f 7f 7f 7e 7e 7e 7e 7e 7f 7f 80     }}}....~~...
    4823:	80 80 80 80 81 81 82 82 82 82 82 81 81 81 81 81     ................
    4833:	81 81 81 81 80 80 80 7f 7f 7f 7f 80 7f 7f 7e 7e     ..............~
    4843:	7e 7e 7d 7d 7d 7c 7c 7d 7d 7d 7e 7e 7f 80 81 81     ~}}}||}}}~....
    4853:	81 81 81 81 81 81 81 81 81 81 81 81 81 81 81 81     ................
    4863:	81 81 81 81 80 80 7f 7f 7f 7f 7e 7e 7d 7d 7d 7d     ..........~}}}}
    4873:	7d 7d 7d 7e 7e 7f 7f 7f 7f 7f 7f 7f 7f 7f 7f 7f     }}}~...........
    4883:	7f 7f 80 80 81 81 82 82 83 83 82 82 82 82 81 81     ................
    4893:	81 80 80 7f 7f 7f 7f 7f 7e 7e 7e 7e 7e 7e 7e 7e     ........~~~~
    48a3:	7e 7f 7f 7f 7e 7e 7e 7e 7e 7e 7f 7f 80 80 80 81     ...~~~......
    48b3:	81 81 81 81 81 81 80 80 80 7f 80 80 80 81 81 81     ................
    48c3:	80 80 80 80 80 80 80 80 80 80 7f 7f 7e 7e 7e 7e     ............~~
    48d3:	7e 7f 7f 7f 7f 7f 80 80 81 81 81 81 81 80 80 7f     ...............
    48e3:	7f 7f 80 80 81 80 80 80 80 80 80 80 80 80 80 80     ................
    48f3:	7f 7f 7e 7e 7e 7e 7f 7f 7f 7e 7e 7f 7f 80 80 81     ..~~...~.....
    4903:	81 81 81 80 80 7f 7f 7f 7f 80 80 80 7f 7f 7f 7f     ................
    4913:	80 80 81 81 81 80 80 7f 7f 7f 7e 7e 7f 7f 7f 7f     ..........~....
    4923:	7e 7f 7f 80 80 81 81 81 80 80 80 7f 7f 7f 7f 7f     ...............
    4933:	7f 7f 7f 7e 7e 7e 7e 7f 7f 80 80 80 80 80 80 80     ...~~.........
    4943:	7f 7f 7f 7f 80 80 80 80 80 80 81 81 81 81 80 80     ................
    4953:	80 7f 7f 7f 7f 7f 7f 7f 7f 7e 7e 7e 7e 7f 7f 80     .........~~...
    4963:	80 80 80 80 80 80 80 80 80 80 80 7f 7f 7f 7f 80     ................
    4973:	80 80 80 80 80 80 80 80 80 80 80 80 7f 7f 7f 7e     ...............    4983:	7e 7f 7f 7f 7f 7f 7f 7f 7f 80 80 80 80 80 80 80     ...............
    4993:	80 80 80 80 80 80 81 80 80 80 80 80 80 80 80 80     ................
    49a3:	80 7f 7f 7f 7f 7e 7e 7e 7e 7f 7f 7f 7f 7f 7e 7e     .....~~.....~
    49b3:	80 81 7f 7f 80 82 80 7f 7f 7f 7f 7f 7f 7f 7f 7f     ................
    49c3:	7e 7f 7f 81 80 7e 80 81 82 7f 80 82 82 7f 7e 80     .............
    49d3:	7f 7e 7e 7f 80 80 7f 7e 80 81 7f 7e 80 82 81 80     .~...........
    49e3:	80 80 81 7f 7f 7f 7e 7f 7e 7d 7d 7e 7f 7f 7e 7f     .......}}...
    49f3:	81 81 80 80 81 81 80 7e                             .......
000049fb <Thank_samples>:
    49fb:	7e 80 80 7f 81 7f 7f 80 80 7f 7f 7f 80 81 80 80     ...............
    4a0b:	81 7f 7f 80 80 7f 7f 7f 7f 7f 7f 7f 81 7f 7e 80     ...............
    4a1b:	7f 7f 7d 7d 80 7f 7e 80 80 80 80 7f 80 81 80 81     ..}}...........
    4a2b:	81 7e 80 80 7f 7f 80 80 80 80 7f 81 80 7e 81 82     ..............
    4a3b:	81 80 7f 81 82 7f 81 81 7f 80 7e 80 80 7d 7f 7e     ............}.    4a4b:	7e 7f 7c 7f 80 7c 7f 80 7f 80 80 7e 7e 80 7f 7f     .|..|.....~...
    4a5b:	80 7d 7f 80 7d 80 7f 7e 7f 7d 7f 81 7d 80 82 82     .}..}...}..}...
    4a6b:	83 82 82 84 83 82 84 84 85 84 82 87 83 81 84 80     ................
    4a7b:	7f 7f 7e 7c 7b 7a 7a 79 79 7a 79 78 78 7b 79 7a     ..|{zzyyzyxx{yz
    4a8b:	7b 7a 7f 7d 7a 7e 7d 7d 80 81 80 83 87 87 86 86     {z.}z}}........
    4a9b:	8a 8e 8a 87 8d 8f 8d 8b 8b 93 93 8b 88 87 85 7e     ...............    4aab:	73 70 6e 6b 69 66 68 69 6a 6d 70 74 76 74 75 77     spnkifhijmptvtuw
    4abb:	77 77 77 7b 7f 80 83 86 8c 8f 92 97 9b 9a 9b a0     www{............
    4acb:	9f 9b 90 8d 94 8a 83 82 78 7b 7b 6e 70 74 6b 6d     ........x{{nptkm
    4adb:	6f 68 6c 6a 64 68 68 6a 6e 6c 6d 73 73 73 7a 7c     ohljdhhjnlmsssz|
    4aeb:	7f 8b 8d 92 9e a4 a7 b2 b4 a8 b4 a9 8c 90 7f 72     ...............r
    4afb:	77 65 66 73 69 6e 7b 77 79 7d 75 73 6f 62 64 67     wefsin{wy}usobdg
    4b0b:	5d 66 6c 66 6f 72 71 7b 7b 7d 8b 8c 90 9e a0 a5     ]flforq{{}......
    4b1b:	b1 b8 b5 af a2 91 8f 82 6f 6e 6a 6a 70 6e 76 83     ........onjjpnv.
    4b2b:	81 81 81 7d 79 6a 5f 61 5f 58 5d 63 65 69 6e 72     ...}yj_a_X]ceinr
    4b3b:	7b 84 85 8d 97 9c a3 ab ae b1 ba ab 91 8e 89 76     {..............v
    4b4b:	6b 67 6c 75 74 79 8a 90 8e 8b 85 81 74 61 5a 55     kgluty......taZU
    4b5b:	51 59 5a 5b 68 6f 71 78 7d 86 8e 8f 9b a8 a7 ae     QYZ[hoqx}.......
    4b6b:	b1 b0 bb 92 79 8d 70 5c 60 5b 71 7d 7a 92 a7 9b     ....y.p\`[q}z...
    4b7b:	95 98 8a 77 68 59 51 4d 47 54 5c 5a 6d 77 70 7b     ...whYQMGT\Zmwp{
    4b8b:	88 89 90 9c ab b5 b5 b0 b9 c1 87 6e 8a 68 50 54     ...........n.hPT
    4b9b:	54 75 79 75 a1 b2 9d 9c 9b 8b 76 5c 58 5d 49 4b     Tuyu......v\X]IK
    4bab:	65 5c 5c 73 72 70 76 7c 8c 8f 8c a9 bd b6 b5 ba     e\\srpv|........
    4bbb:	c7 9e 65 7d 75 4b 4a 53 6e 81 7a 94 b7 a7 92 96     ..e}uKJSn.z.....
    4bcb:	8f 72 59 56 56 4e 4e 61 68 62 6e 75 6d 70 7a 85     .rYVVNNahbnumpz.
    4bdb:	90 99 b0 c3 ca be c8 c7 79 6e 7f 51 41 40 56 7e     ........yn.QA@V    4beb:	7b 86 b5 ba 9f 9a 98 83 64 54 55 51 49 55 69 62     {.......dTUQIUib
    4bfb:	5f 6d 6d 68 70 78 8b 9b a7 bc d3 cf ca d0 92 73     _mmhpx.........s
    4c0b:	83 57 41 40 47 6f 7b 7f a8 ba a6 a0 9b 89 72 5d     .WA@Go{.......r]
    4c1b:	56 56 4e 4d 61 63 5c 67 66 60 6a 71 7d 8f 9e b7     VVNMac\gf`jq}...
    4c2b:	cd dc d3 d4 b5 77 7f 69 39 3b 41 5f 7b 82 9f b9     .....w.i9;A_{...
    4c3b:	b0 a3 9e 8c 7a 68 58 54 57 50 58 69 58 58 63 5c     ....zhXTWPXiXXc\
    4c4b:	65 72 7b 95 ad b1 d2 e8 cf bb 90 7f 7d 46 36 49     er{.........}F6I
    4c5b:	55 67 7c 97 ad ac 9f a0 9c 85 74 70 66 5f 5c 61     Ug|.......tpf_\a
    4c6b:	63 55 53 56 55 5c 69 7c 93 a8 b4 d6 e9 d4 bb 8e     cUSVU\i|........
    4c7b:	84 7f 47 37 49 57 64 70 8c a6 a1 95 9b a0 8c 74     ..G7IWdp.......t
    4c8b:	73 70 61 5a 5c 64 5b 4c 59 69 63 70 8f a5 ab bb     spaZ\d[LYicp....
    4c9b:	df df c2 9a 8a 8f 62 3b 48 58 5d 5f 75 99 a0 90     ......b;HX]_u...
    4cab:	97 a6 96 7a 74 76 65 56 58 5e 5f 56 58 67 6b 74     ...ztveVX^_VXgkt
    4cbb:	89 9d a6 b4 d1 d9 c7 a7 96 9a 72 44 4b 57 53 52     ..........rDKWSR
    4ccb:	66 87 9a 93 94 a8 a1 84 79 75 61 4f 4b 51 5c 59     f.......yuaOKQ\Y
    4cdb:	5d 70 77 84 95 a1 a3 ad c7 cf bd 9f 9c a2 79 53     ]pw...........yS
    4ceb:	56 5c 54 49 56 79 8d 88 92 ad a9 8e 83 7c 61 4b     V\TIVy.......|aK
    4cfb:	44 44 4e 4f 5f 77 7d 96 ad ad ae b7 ca cc 9f 85     DDNO_w}.........
    4d0b:	9f 96 63 55 67 70 5b 4d 68 84 7e 79 92 a1 94 83     ..cUgp[Mh.y....
    4d1b:	82 7c 5d 4d 54 51 48 4c 63 74 85 9b af b9 c2 db     .|]MTQHLct......
    4d2b:	db af 8d 90 8e 65 43 5a 71 66 5c 72 90 8b 7b 86     .....eCZqf\r..{.
    4d3b:	94 86 71 6b 6e 5e 52 5b 5b 54 55 62 70 7e 95 ae     ..qkn^R[[TUbp..
    4d4b:	be d8 ea e2 bd 96 9b 80 4e 3c 52 63 59 5c 81 9f     ........N<RcY\..
    4d5b:	92 8a 9a 9d 7d 64 62 5b 47 44 50 54 4a 56 67 70     ....}db[GDPTJVgp
    4d6b:	85 a3 c0 d2 e6 ed e0 a4 8f 99 71 46 47 68 6b 55     ..........qFGhkU
    4d7b:	63 91 98 82 8b 9e 93 7a 6c 67 5f 4b 42 4a 3b 37     c......zlg_KBJ;7
    4d8b:	4b 5c 70 9a c0 e6 f6 f3 e1 a3 9c 8c 58 43 57 73     K\p.........XCWs
    4d9b:	6f 63 7e 9c 90 7f 88 90 82 6e 64 6b 65 58 5f 58     oc......ndkeX_X
    4dab:	42 44 48 4f 64 87 b3 e9 f7 ee d0 ac a9 7f 4a 4d     BDHOd.........JM
    4dbb:	68 69 62 6c 89 98 90 8a 90 8f 7b 63 5d 5d 52 59     hibl......{c]]RY
    4dcb:	60 4d 48 55 5f 63 75 9b d3 f7 ea cc ac b1 94 55     `MHU_cu........U
    4ddb:	51 6b 72 6a 69 7d 91 8d 82 8a 95 89 70 69 64 52     Qkrji}......pidR
    4deb:	50 5b 4e 3e 46 57 60 70 90 cc fc f2 cd ac bc a0     P[N>FW`p........
    4dfb:	51 48 65 71 68 69 7e 92 8d 86 92 9d 89 6f 71 67     QHeqhi......oqg
    4e0b:	4c 4f 5f 52 3d 4c 61 5f 65 87 c4 f4 ee ca b7 c6     LO_R=La_e.......
    4e1b:	9f 58 55 62 62 5d 62 72 80 88 8e a0 ae 97 7c 7c     .XUbb]br......||
    4e2b:	63 3d 48 54 3e 38 55 64 68 76 93 d0 f4 e4 bf bd     c=HT>8Udhv......
    4e3b:	cc 8f 57 65 68 57 51 5c 68 6f 7b 8c a8 b2 9c 90     ..WehWQ\ho{.....
    4e4b:	8e 64 3e 4b 48 29 32 55 5c 60 7b a5 db ed dc c8     .d>KH)2U\`{.....
    4e5b:	d2 d5 83 5c 77 69 4b 4f 5b 57 5f 75 8a a5 a7 9b     ...\wiKO[W_u....
    4e6b:	9f 92 62 47 5b 49 1b 3c 63 47 4f 80 a5 d5 e4 d1     ..bG[I.<cGO.....
    4e7b:	d6 e8 c4 87 86 7d 5a 5b 5d 48 4a 63 6c 7e 9d 9c     .....}Z[]HJcl..
    4e8b:	95 9c 86 69 67 5b 41 3d 49 4d 4b 58 77 a7 d3 d2     ...ig[A=IMKXw...
    4e9b:	cd e2 e0 b1 94 98 7a 57 5a 58 45 48 63 74 82 92     ......zWZXEHct..
    4eab:	99 95 8b 81 77 70 64 4c 47 52 4e 49 63 88 a4 c4     ....wpdLGRNIc...
    4ebb:	c2 c7 df cb ad b7 a7 70 5f 63 41 31 4f 57 5d 79     .......p_cA1OW]y
    4ecb:	83 88 92 87 88 91 78 65 6c 60 53 58 69 80 98 a5     ......xel`SXi...
    4edb:	9a b2 ca ae ad c4 ab 8d 8a 79 5a 59 53 43 53 5a     .........yZYSCSZ
    4eeb:	4f 5b 6b 66 77 91 88 80 93 8e 76 81 93 8e 99 94     O[kfw.....v.....
    4efb:	86 9f 98 87 a0 a9 8f 90 9e 7f 71 83 6c 58 6a 62     ..........q.lXjb
    4f0b:	48 4e 50 47 5d 6e 6c 81 93 8c 96 ae b1 b5 ae 9a     HNPG]nl.........
    4f1b:	a1 90 76 7e 7d 72 7d 89 80 84 8c 7f 78 7b 6d 65     ..v}r}.....x{me
    4f2b:	60 4a 4a 5b 52 5c 7f 7f 7e 9c a7 a8 bd b2 a3 b0     `JJ[R\.........
    4f3b:	99 7f 85 7a 66 71 7a 6f 7d 89 79 7b 85 76 72 74     ...zfqzo}.y{.vrt
    4f4b:	5b 52 5c 51 53 6d 74 7b 94 9c a7 bc b0 a8 b2 a2     [R\QSmt{........
    4f5b:	91 94 87 73 77 78 6f 7c 87 79 79 7d 6b 68 68 50     ...swxo|.yy}khhP
    4f6b:	49 53 45 4a 67 6a 74 97 a3 ae c7 c4 b8 c2 b6 a0     ISEJgjt.........
    4f7b:	a3 95 7d 7e 73 62 70 75 61 68 6d 5b 60 64 51 51     ..}sbpuahm[`dQQ
    4f8b:	59 4c 52 66 69 75 90 9e b1 c8 c6 c4 cb bb ab aa     YLRfiu..........
    4f9b:	91 7b 7c 69 59 6a 69 5e 6d 6e 61 6e 6e 5a 61 61     .{|iYji^mnannZaa
    4fab:	4f 59 64 5e 6e 80 88 a0 b5 b3 b9 c5 b7 b1 b6 a0     OYd^n...........
    4fbb:	91 8e 76 69 71 68 5f 6c 69 61 6d 68 5d 64 61 58     ..viqh_liamh]daX
    4fcb:	5c 5d 5d 64 6d 79 8c a0 ab b3 bd c3 bc ba b6 a4     \]]dmy..........
    4fdb:	9a 8c 73 6f 6f 60 60 65 5e 60 68 5c 60 68 5f 61     ..soo``e^`h\`h_a
    4feb:	66 61 62 69 70 7b 90 9d a4 b0 b3 b5 b8 b7 b1 aa     fabip{..........
    4ffb:	a0 8d 80 79 6f 68 65 60 5d 5e 59 58 62 63 68 6c     ...yohe`]^YXbchl
    500b:	6b 69 6d 6d 72 80 8c 92 93 a1 a6 a8 b1 b3 ac a9     kimmr...........
    501b:	a5 95 8c 88 7a 73 72 69 62 61 5c 56 5c 5d 5f 64     ....zsriba\V\]_d
    502b:	63 64 69 6c 73 81 88 90 96 93 9e a4 a2 ab b0 a6     cdils...........
    503b:	a4 a2 94 8d 8b 81 7a 77 6c 64 62 5b 5a 60 5e 61     ......zwldb[Z`^a
    504b:	69 63 69 70 6c 73 7b 7d 84 8b 83 8c 97 95 9e ab     icipls{}........
    505b:	a7 a6 ac a2 9c 9d 91 87 83 76 6a 68 60 5a 5e 5e     .........vjh`Z^^
    506b:	5e 66 68 6a 74 71 72 77 74 77 76 72 78 81 83 8e     ^fhjtqrwtwvrx...
    507b:	99 a2 aa af b2 b2 ac a3 98 8c 7e 71 68 5e 59 59     ..........qh^YY
    508b:	5a 61 67 6b 76 7f 7f 81 81 7c 79 74 70 6b 6b 6f     Zagkv....|ytpkko
    509b:	71 7d 8a 92 98 a3 a7 a8 a5 a0 98 8e 88 7d 75 73     q}...........}us
    50ab:	71 73 78 7c 81 82 82 81 7d 79 7a 6a 5e 64 5a 59     qsx|....}yzj^dZY
    50bb:	62 62 6c 77 7f 8c 8b 92 9b 90 92 9a 92 92 93 8e     bblw............
    50cb:	8e 94 94 91 92 93 8d 8b 88 81 7b 74 6c 65 60 5d     ..........{tle`]
    50db:	5a 5b 63 67 70 74 7a 82 7f 82 85 84 80 87 84 82     Z[cgptz.........
    50eb:	86 8a 8a 8f 97 97 9c 9c 98 95 92 8c 88 81 79 75     ..............yu
    50fb:	70 6b 6a 6b 6d 70 73 72 74 77 78 77 7a 7a 7d 81     pkjkmpsrtwxwzz}.
    510b:	81 83 81 85 84 87 8b 89 88 8a 87 85 85 87 86 83     ................
    511b:	81 7c 7d 7b 79 79 7b 7a 7b 7d 7c 7e 80 7f 80 83     .|}{yy{z{}|....
    512b:	83 84 84 84 83 83 81 81 84 82 80 81 7e 7e 7d 7d     ............~}}
    513b:	7a 78 77 76 75 73 74 76 77 79 7c 7e 81 84 86 89     zxwvustvwy|....
    514b:	8b 8a 8b 8b 8a 8a 88 87 87 87 83 83 83 7f 7d 7e     ..............}    515b:	7b 78 78 77 75 75 75 74 75 77 79 7c 7d 7e 7f 82     {xxwuuutuwy|}..
    516b:	81 84 85 83 84 84 84 81 85 83 82 82 82 83 85 85     ................
    517b:	82 86 82 7f 80 83 7c 7b 81 7b 79 7c 81 7b 7e 80     ......|{.{y|.{.
    518b:	7e 7b 7c 84 7d 7f 69 87 7e 7d 93 5f a7 71 69 a9     楫._.qi.
    519b:	67 99 76 80 96 5f 9b 75 76 98 61 86 85 72 8a 72     g.v.._.uv.a..r.r
    51ab:	88 74 93 98 56 ad 77 75 96 4b 99 83 63 96 6d 6d     .t..V.wu.K..c.mm
    51bb:	8f 79 88 97 69 87 8a 75 85 7b 81 76 81 8a 7b 7f     .y..i..u.{.v..{.
    51cb:	79 73 92 80 70 97 85 8f 76 72 9f 6b 93 82 5b 8f     ys..p...vr.k..[.
    51db:	62 7e 87 64 94 78 8e 9e 58 97 83 67 9b 66 88 81     b.d.x..X..g.f..
    51eb:	65 99 6f 84 8b 75 94 80 7f 83 7f 7e 7f 83 85 7b     e.o..u........{
    51fb:	7a 7e 6f 7e 7e 72 83 80 85 8a 87 86 8b 8f 88 78     zo~r.........x
    520b:	7c 7b 6f 76 6a 75 75 7a 87 82 86 85 85 88 8a 82     |{ovjuuz........
    521b:	86 7c 7f 86 72 8a 75 81 8b 74 8e 7c 7c 84 7b 7e     .|..r.u..t.||.{    522b:	86 7a 7f 82 75 84 71 86 83 79 94 78 8a 7f 7e 8e     .z..u.q..y.x...
    523b:	70 7d 7e 6d 7d 74 68 85 6d 83 92 7c 9b 87 8d 94     p}m}th.m..|....
    524b:	84 91 89 83 80 78 75 81 74 7e 81 79 88 75 84 80     .....xu.t.y.u..
    525b:	77 7d 78 7d 6d 7c 71 65 7d 6f 75 85 76 84 8f 79     w}x}m|qe}ou.v..y
    526b:	96 8f 85 9f 88 97 8b 85 94 7c 97 83 85 98 72 8c     .........|....r.
    527b:	7c 6f 84 67 6e 72 5d 6c 6d 5d 79 73 69 82 74 86     |o.gnr]lm]ysi.t.
    528b:	86 71 88 8a 8a 8f 8c 94 8d 8b 98 8e 97 93 8a 93     .q..............
    529b:	84 8d 85 7a 86 74 78 77 67 73 68 60 6b 65 6f 6a     ...z.txwgsh`keoj
    52ab:	67 78 69 7b 7b 74 95 77 8a a5 81 a3 a0 96 ab a1     gxi{{t.w........
    52bb:	9f 97 97 8a 82 83 71 77 6b 63 6a 5d 63 68 5c 69     ......qwkcj]ch\i
    52cb:	72 62 74 78 73 7d 7c 80 86 92 89 97 a1 89 ab a1     rbtxs}|.........
    52db:	97 b4 8f 99 9e 7d 8d 7b 6a 77 64 64 66 5e 62 62     .....}.{jwddf^bb
    52eb:	65 69 6b 6d 71 6f 74 78 79 7a 87 90 85 a6 96 8b     eikmqotxyz......
    52fb:	be 94 9c be 8d a6 a9 80 96 86 6d 7f 65 5e 67 4c     ..........m.e^gL
    530b:	55 5e 4e 5c 62 5d 62 71 6b 6d 84 78 90 97 93 ac     U^N\b]bqkm.x....
    531b:	99 b8 b5 a5 c9 ab a9 b0 97 8e 84 79 6d 60 5d 51     ...........ym`]Q
    532b:	44 4c 4a 43 4f 57 55 61 6f 6d 78 88 90 98 a2 b2     DLJCOWUaomx.....
    533b:	a4 a7 c5 ab ab c3 a4 a0 aa 8c 81 80 6c 61 5e 54     ............la^T
    534b:	4b 47 4e 4e 49 5e 62 5a 6e 74 71 7f 86 8e 99 a1     KGNNI^bZntq.....
    535b:	a9 9d b0 b9 9d b9 b6 97 ae a2 82 8e 7f 69 6d 62     .............imb
    536b:	57 4e 4b 4d 45 4f 5a 56 5c 6f 6d 70 81 86 8d 99     WNKMEOZV\omp....
    537b:	ac 9c a1 c4 a4 ac cb a6 a5 bb 93 87 95 6f 67 6e     .............ogn
    538b:	55 4e 4d 48 44 45 4f 56 51 63 71 66 77 8c 8d 98     UNMHDEOVQcqfw...
    539b:	b4 ab 9a c9 b8 9c cc b5 94 b8 9e 79 8f 7a 5d 6b     ...........y.z]k
    53ab:	5f 4b 4d 4a 45 48 50 5a 58 62 75 70 74 8d 97 91     _KMJEHPZXbupt...
    53bb:	b1 b1 93 c3 bd 96 c2 ba 90 aa a3 76 82 7d 5d 64     ...........v.}]d
    53cb:	63 4f 4b 4d 48 4c 51 5c 5e 60 75 77 73 8c 9e 94     cOKMHLQ\^`uws...
    53db:	ae b3 98 c0 bc 9a bc b5 90 a4 9f 76 7e 7d 5e 62     ...........v}^b
    53eb:	66 50 4b 4f 47 49 52 5a 5a 60 73 74 72 8c 9e 96     fPKOGIRZZ`str...
    53fb:	ad b0 9d bf ba a0 ba b6 95 a2 a3 7b 7d 80 61 60     ...........{}.a`
    540b:	6a 53 47 53 4a 45 55 5c 54 60 72 6e 6e 89 9a 93     jSGSJEU\T`rnn...
    541b:	ab ae 9d bc bc a3 b7 ba 9b 9d a4 84 78 80 6a 5d     ............x.j]
    542b:	67 59 47 4f 4d 45 52 5e 57 5f 71 71 6f 85 9a 97     gYGOMER^W_qqo...
    543b:	a7 ac a1 bb bb a7 b7 b9 9d 9b a0 84 75 7a 68 5b     ............uzh[
    544b:	63 59 4b 50 50 4a 54 61 5b 61 72 73 70 85 99 9a     cYKPPJTa[arsp...
    545b:	ab ac a0 ba bb a3 b1 b8 9b 93 9c 84 6f 75 6a 5b     ............ouj[
    546b:	63 5e 4e 53 55 4e 58 65 60 61 72 76 6f 7d 94 96     c^NSUNXe`arvo}..
    547b:	a3 aa 9b b0 c0 a6 a9 bc a4 93 9d 8d 73 76 70 5f     ............svp_
    548b:	63 61 4f 51 56 4d 55 63 5f 5e 6c 74 6f 76 89 92     caOQVMUc_^ltov..
    549b:	9e ae 9f a3 c3 b5 a3 ba b5 9a 9e 9a 7e 76 73 60     ............vs`
    54ab:	5d 60 50 49 51 4d 4b 5b 62 5c 66 76 77 75 82 8f     ]`PIQMK[b\fvwu..
    54bb:	98 aa ab 9a b2 c4 aa ab bd ad 9b 9c 91 7d 73 67     .............}sg
    54cb:	5c 5c 54 47 49 4e 48 4d 60 64 61 6f 7f 7e 7c 87     \\TGINHM`dao.|.
    54db:	93 9e a9 a4 9c af ba ab ab b5 ad a0 99 8f 81 74     ...............t
    54eb:	66 5b 59 51 43 45 4c 49 4c 5e 69 69 71 82 86 81     f[YQCELIL^iiq...
    54fb:	85 92 a1 a6 9e 99 a8 b6 ac a8 b1 b1 a6 9a 90 85     ................
    550b:	78 67 58 56 52 45 41 49 4e 51 5f 69 70 78 81 86     xgXVREAINQ_ipx..
    551b:	86 83 8a 98 a0 9b 92 9d b4 b2 a5 ad ba af 9b 94     ................
    552b:	8e 80 69 58 57 55 46 3b 45 51 52 58 68 72 78 7d     ..iXWUF;EQRXhrx}
    553b:	83 85 83 84 8f 9d a0 91 94 b2 b8 a8 aa b9 b7 a4     ................
    554b:	94 8d 85 72 58 50 57 4e 3d 3f 50 59 5d 65 6f 7d     ...rXPWN=?PY]eo}
    555b:	83 80 81 83 81 84 91 9a 93 8b 9f b4 b0 a9 b1 ba     ................
    556b:	b2 9f 8f 86 7d 68 53 50 55 4d 40 45 57 64 67 68     ....}hSPUM@EWdgh
    557b:	73 83 82 7a 77 7a 81 8a 8e 90 8d 96 ac b2 b0 b6     s..zwz..........
    558b:	bb b7 af 9f 8a 7e 74 5e 4f 50 52 47 43 4e 5d 6a     .....t^OPRGCN]j
    559b:	6d 6b 75 81 80 75 6f 76 86 8d 8c 8a 90 a7 b6 b1     mku..uov........
    55ab:	b3 be c0 b7 a8 95 86 7c 6a 55 50 51 49 41 45 53     .......|jUPQIAES
    55bb:	62 6d 6d 6d 77 81 7c 6f 6d 7a 8a 8f 8c 8a 9a b5     bmmmw.|omz......
    55cb:	ba b3 b9 c3 c2 b3 9d 8a 80 75 5f 4f 4d 4d 46 42     .........u_OMMFB
    55db:	49 5a 6e 76 6f 6e 7b 83 76 67 69 7b 8a 8e 87 89     IZnvon{.vgi{....
    55eb:	a4 bd bd b6 bd c7 c6 b3 97 84 80 74 5a 48 46 49     ...........tZHFI
    55fb:	45 41 49 5e 73 75 6b 6f 7c 7e 70 64 6b 80 90 90     EAI^suko|pdk...
    560b:	87 8f b0 c6 c3 bc bf c8 c6 b1 90 7b 77 6c 53 41     ...........{wlSA
    561b:	3e 42 44 47 4e 60 75 78 70 6f 75 78 70 67 6d 82     >BDGN`uxpouxpgm.
    562b:	95 97 8d 98 b8 cc ca c1 bf c5 c4 ac 87 70 6a 60     .............pj`
    563b:	4e 3e 36 39 45 50 55 65 74 77 74 74 72 70 6c 6c     N>69EPUetwttrpll
    564b:	76 88 99 9a 95 a6 c2 ce cd c7 c3 c2 ba a0 7c 69     v.............|i
    565b:	5e 51 45 3c 34 36 45 55 62 6f 74 72 76 79 74 6b     ^QE<46EUbotrvytk
    566b:	67 6f 82 96 9e 95 99 b7 ce d1 ca c3 c2 c2 b1 8b     go..............
    567b:	6c 60 55 48 3f 36 31 3b 4d 5c 6a 76 76 74 77 77     l`UH?61;M\jvvtww
    568b:	72 6b 68 72 87 9c a2 99 a1 bf d5 d7 ce c3 bf bb     rkhr............
    569b:	a7 81 63 52 48 41 3a 31 2d 3b 51 64 72 77 74 74     ..cRHA:1-;Qdrwtt
    56ab:	7a 7b 74 6b 6c 7b 96 ab a5 9a ab c9 da d9 c9 b8     z{tkl{..........
    56bb:	b4 b1 99 73 55 43 3d 3f 3e 33 30 40 59 72 80 7b     ...sUC=?>30@Yr.{
    56cb:	72 72 77 7a 74 68 68 7d 9b af a8 a1 b1 cc de dc     rrwzthh}........
    56db:	cb b7 ac a3 8e 6d 50 3d 36 3a 3d 38 36 43 5a 73     .....mP=6:=86CZs
    56eb:	84 81 74 6e 73 78 75 70 71 81 9f b1 ae ad ba cb     ..tnsxupq.......
    56fb:	d9 dc cb b4 a2 90 79 63 4e 39 30 35 3b 3e 45 4e     ......ycN905;>EN
    570b:	5e 76 87 84 7a 72 6f 71 75 75 7a 8a 9f ab af b8     ^v..zroquuz.....
    571b:	c3 ce d6 d3 c4 b0 9b 81 69 58 4a 3c 35 35 39 41     ........iXJ<559A
    572b:	4d 59 67 7a 83 81 7a 74 70 6f 72 78 83 97 a8 ac     MYgz..ztporx....
    573b:	b0 bc c8 d2 d5 cc b7 a2 8d 75 5f 52 43 38 37 3a     .........u_RC87:
    574b:	3f 4a 56 60 70 80 85 80 79 71 6d 6f 75 7d 8b 9e     ?JV`p...yqmou}..
    575b:	a8 ac b5 c0 c9 d0 d0 c2 ae 9a 83 69 59 4d 42 3c     ...........iYMB<
    576b:	3c 3d 45 52 5e 6a 78 80 80 7b 74 6d 69 6b 71 7f     <=ER^jx..{tmikq.
    577b:	92 a5 ab ae b8 c2 cc d2 ce bd a8 92 7a 65 57 4b     ............zeWK
    578b:	40 3b 3c 40 4b 59 64 70 7b 7f 7d 79 71 6a 67 69     @;<@KYdp{.}yqjgi
    579b:	72 82 97 a8 ad b0 b7 c0 c9 cf cb bb a4 8d 75 62     r.............ub
    57ab:	57 4d 44 3f 3f 42 4e 5d 6a 76 7e 7d 78 74 6e 69     WMD??BN]jv}xtni
    57bb:	67 69 72 84 9c ae b1 b2 b6 bc c5 cc c9 b8 a1 88     gir.............
    57cb:	70 5e 55 4e 47 43 42 45 50 60 6e 7a 7f 7b 74 6e     p^UNGCBEP`nz.{tn
    57db:	6a 67 68 6b 73 84 9d b0 b5 b7 b9 bb c2 c9 c8 b9     jghks...........
    57eb:	a1 88 6e 5b 52 4d 48 47 45 46 4e 5d 6c 7a 80 79     ..n[RMHGEFN]lz.y
    57fb:	70 6b 68 67 69 6c 73 84 9e b3 bb bd bb ba bf c7     pkhgils.........
    580b:	c8 ba a2 87 6c 59 51 4d 4a 49 48 48 4f 5b 69 78     ....lYQMJIHHO[ix
    581b:	80 7b 72 6c 67 66 69 6d 74 83 9b b2 bd bd bb b9     .{rlgfimt.......
    582b:	bb c2 c5 ba a4 89 6e 58 50 4e 4d 4e 4d 4c 50 5b     ......nXPNMNMLP[
    583b:	69 77 7e 7a 72 6b 65 63 66 6b 73 82 98 af bb be     iwzrkecfks.....
    584b:	bc b9 b9 be c3 bb a8 8f 73 5b 51 50 51 53 53 4f     ........s[QPQSSO
    585b:	4f 58 64 71 7a 78 70 69 62 60 63 6a 73 81 97 ae     OXdqzxpib`cjs...
    586b:	bd c1 c0 bc ba bd c1 bc ac 95 79 5e 4f 4d 4f 53     ..........y^OMOS
    587b:	54 50 4e 54 5e 6b 76 78 73 6d 65 5f 62 69 74 82     TPNT^kvxsme_bit.
    588b:	96 ad be c4 c3 bf ba bb be ba ad 98 7c 60 4f 4a     ............|`OJ
    589b:	4d 51 54 51 4f 52 5b 67 73 79 76 70 68 62 61 68     MQTQOR[gsyvphbah
    58ab:	72 81 95 ad be c4 c3 bf ba ba bc ba af 9b 81 64     r..............d
    58bb:	50 4a 4c 50 54 53 4f 51 5a 64 70 78 79 73 6c 64     PJLPTSOQZdpxysld
    58cb:	61 65 6e 7c 91 a9 bc c3 c4 c0 ba b8 ba bb b2 9f     aen|............
    58db:	84 67 52 4a 4b 50 55 55 51 53 5a 63 70 7a 7c 78     .gRJKPUUQSZcpz|x
    58eb:	70 67 61 62 6a 79 8d a5 b8 c0 c0 be b9 b5 b7 b9     pgabjy..........
    58fb:	b2 a0 88 6b 54 4a 4a 4e 54 56 52 53 59 62 70 7c     ...kTJJNTVRSYbp|
    590b:	80 7d 75 6b 63 63 6a 79 8d a4 b6 c0 c0 bd b9 b5     .}ukccjy........
    591b:	b6 b8 b2 a1 88 6c 53 48 47 4a 50 53 51 51 57 61     .....lSHGJPSQQWa
    592b:	6e 7b 83 80 77 6d 65 62 69 78 8d a4 b8 c1 c1 bf     n{..wmebix......
    593b:	ba b7 b9 bb b4 a4 8b 6c 53 47 44 47 4f 51 4f 50     .......lSGDGOQOP
    594b:	55 5e 6d 7c 82 81 79 6d 63 61 66 77 8d a5 b8 c0     U^m|..ymcafw....
    595b:	bf bb b8 b7 ba bc b6 a3 89 6b 52 47 45 49 50 54     .........kRGEIPT
    596b:	52 52 57 61 70 7f 86 84 7b 6d 61 5e 65 77 8f a7     RRWap...{ma^ew..
    597b:	b7 bc bc b8 b5 b6 bb bc b4 a1 85 66 50 45 44 4a     ...........fPEDJ
    598b:	51 53 52 53 59 64 74 82 88 86 7b 6b 60 5d 66 7a     QSRSYdt...{k`]fz
    599b:	92 a9 b8 bd bb b8 b6 b8 bc bd b2 9d 80 61 4b 43     .............aKC
    59ab:	44 4a 51 54 53 54 5a 66 77 84 89 85 79 68 5d 5d     DJQTSTZfw...yh]]
    59bb:	67 7b 95 ac b9 bc bc b9 b7 ba bf be b2 9c 7c 5d     g{............|]
    59cb:	49 42 43 4c 53 54 52 54 5a 68 7a 86 89 83 75 64     IBCLSTRTZhz...ud
    59db:	5b 5c 67 7d 99 af b9 bc bb b8 b8 bd c1 be b0 98     [\g}............
    59eb:	77 58 46 3f 43 4d 55 56 55 56 5d 6c 7d 89 8a 83     wXF?CMUVUV]l}...
    59fb:	72 62 5a 5d 6c 84 9f b2 b9 ba b9 b6 b7 bd c1 bb     rbZ]l...........
    5a0b:	ab 90 6e 52 42 3e 45 50 58 58 57 58 5e 6d 7f 89     ..nRB>EPXXWX^m..
    5a1b:	8a 81 70 5f 5a 60 73 8e a8 b7 ba b9 b6 b4 b7 be     ..p_Z`s.........
    5a2b:	bf b7 a4 87 66 4d 40 40 49 55 5c 5c 59 59 60 6f     ....fM@@IU\\YY`o
    5a3b:	80 89 89 7e 6c 5b 57 60 76 92 ab b7 b9 b7 b4 b4     ...l[W`v.......
    5a4b:	b9 bf bf b3 9d 7e 5f 4a 42 46 52 5e 62 5f 5c 5c     ....._JBFR^b_\\
    5a5b:	63 73 82 8a 87 7a 66 57 56 64 7c 99 ad b3 b2 ae     cs...zfWVd|.....
    5a6b:	ac af b6 bc b9 ab 92 73 58 4a 47 50 5e 68 68 65     .......sXJGP^hhe
    5a7b:	60 60 69 79 85 8b 87 77 64 58 5b 6d 87 a0 ad af     ``iy...wdX[m....
    5a8b:	ab a5 a3 a9 b2 b6 b0 9e 83 67 53 4b 4e 5b 68 6e     .........gSKN[hn
    5a9b:	6d 69 64 65 6f 7c 86 8a 82 72 62 5c 63 78 92 a6     mideo|...rb\cx..
    5aab:	ad ad a7 a1 a1 a6 ad ae a5 91 76 5e 4f 4b 54 63     ..........v^OKTc
    5abb:	70 74 72 6b 68 6b 75 7f 88 88 7f 6f 62 60 6c 82     ptrkhku....ob`l.
    5acb:	99 a7 ac a8 a0 9b 9c a1 a6 a5 99 84 6b 58 4f 51     ............kXOQ
    5adb:	5f 6e 77 78 74 6d 6c 71 7b 85 8b 88 7c 6e 65 68     _nwxtmlq{...|neh
    5aeb:	77 8d 9e a7 a7 a0 96 92 93 98 9c 99 8b 77 63 55     w............wcU
    5afb:	51 5a 69 76 7c 7c 76 72 74 79 82 8b 8c 85 78 6d     QZiv||vrty....xm
    5b0b:	69 72 83 94 9f a3 9f 95 8d 8a 8c 91 93 8e 80 6f     ir.............o
    5b1b:	5f 57 59 65 72 7d 81 80 7c 7a 7c 80 86 8a 87 7d     _WYer}..|z|....}
    5b2b:	73 6d 6f 7b 8a 97 9d 9c 95 8b 85 84 88 8c 8d 85     smo{............
    5b3b:	79 6b 60 5d 62 6e 7a 84 87 85 83 80 80 82 85 84     yk`]bnz.........
    5b4b:	7f 76 6f 6e 74 80 8c 95 98 94 8c 84 80 82 86 89     .vont...........
    5b5b:	88 81 76 6a 63 64 6c 78 83 8b 8d 8b 88 85 83 82     ..vjcdlx........
    5b6b:	81 7e 78 71 6d 6e 76 82 8d 93 94 90 89 83 81 82     .xqmnv.........
    5b7b:	84 86 84 7d 74 6b 67 6a 72 7d 88 8e 90 8e 8a 86     ...}tkgjr}......
    5b8b:	83 80 7d 78 73 6e 6c 6f 77 82 8c 93 94 92 8c 85     ..}xsnlow.......
    5b9b:	83 82 83 84 81 7b 74 6d 69 6b 73 7d 86 8d 8f 8d     .....{tmiks}....
    5bab:	8a 85 81 7e 7b 77 73 6f 6e 70 77 80 8a 91 93 92     ...黧镱瘅碘忖稿腹付傅复赋赴封范钒朵跺烦封赋腹鲳眍篼碘汊搞糕腹傅覆锋封犯反凡凡烦贩蜂傅搞趄蝮鼾碘溻告拱告搞父付复覆赴枫犯返凡凡反饭躜螋碘邂锋复阜父阜复赴蜂封饭犯贩范贩饭枫黯鼯碘驸赴傅糕稿告稿搞腹付赋副锋枫饭范反鲷点扳烦返犯枫赴赋赋覆赴峰枫封封封丰丰篚点扁丰丰封锋赋父镐告拱告镐糕父付赋赴点测枫犯返烦烦反贩丰枫蜂峰蜂蜂蜂蜂蜂躞篝鼹}}}}
    5c3b:	7d 7c 7a 79 78 79 7c 80 85 8a 8f 91 93 93 92 91     }|zyxy|.........
    5c4b:	8e 8b 86 81 7b 76 72 6f 6f 70 72 74 76 79 7b 7d     ....{vrooprtvy{}
    5c5b:	7f 80 80 7f 7d 79 77 76 76 79 7d 82 88 8d 92 95     ....}ywvvy}.....
    5c6b:	98 99 98 96 92 8b 84 7c 75 6f 6b 6a 6a 6b 6e 72     .......|uokjjknr
    5c7b:	77 7c 80 83 85 84 82 7e 7b 77 75 74 75 79 7d 83     w|.....黪趱点糕腹告沟构广逛光苟告阜锋贩钒垛陡斗黟腓点光陡垛舵反丰锋赋复复覆锋枫饭犯贩饭桦雉鼯点徕封锋赋腹告勾垢贯贯狗共搞复枫返钒躔点忖躲豆陡夺朵凡贩枫赴覆赋覆赴峰枫丰扉桕眚鼽点汊丰丰封蜂赴傅羔稿共勾沟勾贡镐父覆点溻蜂贩烦钒舵跺钒凡范饭枫峰峰峰蜂蜂黧痫铕蝣}
    5ceb:	7c 7c 7c 7c 7d 7f 82 85 88 8c 8e 90 91 90 8e 8b     ||||}...........
    5cfb:	87 83 7e 7b 78 75 74 74 74 75 77 79 7b 7c 7c 7c     ..豸趑貅典扳封封丰丰封枫蜂锋覆傅阜羔搞稿稿稿典扁镐糕父傅副峰封饭贩贩贩贩犯犯饭饭鼢鼢典测饭饭饭饭丰丰封枫峰赴覆复付腹羔糕典斥搞搞糕腹阜傅赋副锋蜂枫丰丰饭饭饭典粹犯犯犯贩贩犯犯饭丰枫峰赴覆复傅阜鼢典碘父腹腹腹父阜付傅复覆副赴锋峰蜂枫|
    5d6b:	7b 7a 79 78 77 77 77 77 78 79 7a 7c 7e 80 82 83     {zyxwwwwxyz|...
    5d7b:	85 86 87 87 87 87 86 85 85 84 83 82 82 81 80 80     ................
    5d8b:	7f 7e 7d 7c 7b 7a 79 78 78 78 79 7a 7c 7d 7f 80     .}|{zyxxxyz|}..
    5d9b:	81 83 84 85 85 85 85 84 83 83 82 82 81 81 81 80     ................
    5dab:	80 80 80 7f 7f 7e 7d 7c 7b 7a 7a 7a 7b 7b 7d 7e     .....}|{zzz{{}    5dbb:	7f 80 82 83 84 85 85 85 84 83 82 81 80 80 80 80     ................
    5dcb:	80 80 7f 7f 7f 7f 7f 7f 7e 7d 7c 7b 7a 7a 7b 7c     ........}|{zz{|
    5ddb:	7d 7e 7f 80 81 82 84 85 85 85 84 83 82 81 80 7f     }..............
    5deb:	7f 7f 7f 7f 7f 7f 7f 7f 7e 7e 7d 7d 7c 7b 7b 7b     ........~}}|{{{
    5dfb:	7b 7c 7d 7e 80 81 82 83 84 84 84 84 84 83 82 81     {|}............
    5e0b:	80 80 7f 7f 7f 7f 7f 7f 7f 7f 7e 7d 7d 7c 7b 7b     ..........}}|{{
    5e1b:	7a 7b 7b 7c 7d 7e 80 81 83 84 85 85 85 84 83 82     z{{|}..........
    5e2b:	80 80 80 7f 7f 80 7f 80 80 80 81 80 7f 7e 7d 7c     .............}|
    5e3b:	7b 7a 7a 7a 7b 7c 7d 7e 80 82 83 84 85 86 85 84     {zzz{|}........
    5e4b:	83 81 80 80 7f 7f 80 80 80 80 80 80 80 80 80 7f     ................
    5e5b:	7e 7c 7b 7b 7a 7a 7b 7c 7d 7e 7f 81 82 84 85 85     |{{zz{|}......
    5e6b:	85 84 82 81 80 7f 7f 7f 7f 80 80 80 81 81 81 81     ................
    5e7b:	80 7f 7e 7d 7c 7b 7a 7a 7a 7b 7d 7e 7f 81 83 84     ..}|{zzz{}....
    5e8b:	85 85 84 84 83 81 80 7f 7e 7e 7e 7f 80 80 81 81     ........~.....
    5e9b:	81 81 80 7f 7e 7d 7c 7b 7a 7a 7a 7b 7c 7e 80 81     ....}|{zzz{|..
    5eab:	82 84 84 85 84 84 82 81 80 7f 7f 7f 7f 7f 7f 80     ................
    5ebb:	81 81 81 81 80 7f 7e 7d 7c 7b 7a 7a 7a 7b 7c 7d     ......}|{zzz{|}
    5ecb:	7f 80 82 83 84 84 84 83 83 82 81 80 80 7f 7f 7f     ................
    5edb:	80 80 80 80 81 81 80 7f 7e 7d 7c 7c 7b 7b 7b 7b     ........}||{{{{
    5eeb:	7c 7d 7e 80 81 82 83 83 83 83 83 82 81 81 81 81     |}.............
    5efb:	80 80 80 7f 80 80 80 80 80 7f 7f                    ...........

00005f06 <__ctors_end>:
    5f06:	11 24       	eor	r1, r1
    5f08:	1f be       	out	0x3f, r1	; 63
    5f0a:	cf e5       	ldi	r28, 0x5F	; 95
    5f0c:	d8 e0       	ldi	r29, 0x08	; 8
    5f0e:	de bf       	out	0x3e, r29	; 62
    5f10:	cd bf       	out	0x3d, r28	; 61

00005f12 <__do_copy_data>:
    5f12:	10 e0       	ldi	r17, 0x00	; 0
    5f14:	a0 e6       	ldi	r26, 0x60	; 96
    5f16:	b0 e0       	ldi	r27, 0x00	; 0
    5f18:	e8 eb       	ldi	r30, 0xB8	; 184
    5f1a:	ff e7       	ldi	r31, 0x7F	; 127
    5f1c:	02 c0       	rjmp	.+4      	; 0x5f22 <.do_copy_data_start>

00005f1e <.do_copy_data_loop>:
    5f1e:	05 90       	lpm	r0, Z+
    5f20:	0d 92       	st	X+, r0

00005f22 <.do_copy_data_start>:
    5f22:	a6 39       	cpi	r26, 0x96	; 150
    5f24:	b1 07       	cpc	r27, r17
    5f26:	d9 f7       	brne	.-10     	; 0x5f1e <.do_copy_data_loop>

00005f28 <__do_clear_bss>:
    5f28:	10 e0       	ldi	r17, 0x00	; 0
    5f2a:	a6 e9       	ldi	r26, 0x96	; 150
    5f2c:	b0 e0       	ldi	r27, 0x00	; 0
    5f2e:	01 c0       	rjmp	.+2      	; 0x5f32 <.do_clear_bss_start>

00005f30 <.do_clear_bss_loop>:
    5f30:	1d 92       	st	X+, r1

00005f32 <.do_clear_bss_start>:
    5f32:	a0 3e       	cpi	r26, 0xE0	; 224
    5f34:	b1 07       	cpc	r27, r17
    5f36:	e1 f7       	brne	.-8      	; 0x5f30 <.do_clear_bss_loop>
    5f38:	0e 94 be 3e 	call	0x7d7c	; 0x7d7c <main>
    5f3c:	0c 94 da 3f 	jmp	0x7fb4	; 0x7fb4 <_exit>

00005f40 <__bad_interrupt>:
    5f40:	0c 94 00 00 	jmp	0	; 0x0 <__vectors>

00005f44 <__fixunssfsi>:
    5f44:	ef 92       	push	r14
    5f46:	ff 92       	push	r15
    5f48:	0f 93       	push	r16
    5f4a:	1f 93       	push	r17
    5f4c:	7b 01       	movw	r14, r22
    5f4e:	8c 01       	movw	r16, r24
    5f50:	20 e0       	ldi	r18, 0x00	; 0
    5f52:	30 e0       	ldi	r19, 0x00	; 0
    5f54:	40 e0       	ldi	r20, 0x00	; 0
    5f56:	5f e4       	ldi	r21, 0x4F	; 79
    5f58:	0e 94 a2 32 	call	0x6544	; 0x6544 <__gesf2>
    5f5c:	88 23       	and	r24, r24
    5f5e:	8c f0       	brlt	.+34     	; 0x5f82 <__fixunssfsi+0x3e>
    5f60:	c8 01       	movw	r24, r16
    5f62:	b7 01       	movw	r22, r14
    5f64:	20 e0       	ldi	r18, 0x00	; 0
    5f66:	30 e0       	ldi	r19, 0x00	; 0
    5f68:	40 e0       	ldi	r20, 0x00	; 0
    5f6a:	5f e4       	ldi	r21, 0x4F	; 79
    5f6c:	0e 94 1a 31 	call	0x6234	; 0x6234 <__subsf3>
    5f70:	0e 94 02 33 	call	0x6604	; 0x6604 <__fixsfsi>
    5f74:	9b 01       	movw	r18, r22
    5f76:	ac 01       	movw	r20, r24
    5f78:	20 50       	subi	r18, 0x00	; 0
    5f7a:	30 40       	sbci	r19, 0x00	; 0
    5f7c:	40 40       	sbci	r20, 0x00	; 0
    5f7e:	50 48       	sbci	r21, 0x80	; 128
    5f80:	06 c0       	rjmp	.+12     	; 0x5f8e <__fixunssfsi+0x4a>
    5f82:	c8 01       	movw	r24, r16
    5f84:	b7 01       	movw	r22, r14
    5f86:	0e 94 02 33 	call	0x6604	; 0x6604 <__fixsfsi>
    5f8a:	9b 01       	movw	r18, r22
    5f8c:	ac 01       	movw	r20, r24
    5f8e:	b9 01       	movw	r22, r18
    5f90:	ca 01       	movw	r24, r20
    5f92:	1f 91       	pop	r17
    5f94:	0f 91       	pop	r16
    5f96:	ff 90       	pop	r15
    5f98:	ef 90       	pop	r14
    5f9a:	08 95       	ret

00005f9c <_fpadd_parts>:
    5f9c:	a0 e0       	ldi	r26, 0x00	; 0
    5f9e:	b0 e0       	ldi	r27, 0x00	; 0
    5fa0:	e4 ed       	ldi	r30, 0xD4	; 212
    5fa2:	ff e2       	ldi	r31, 0x2F	; 47
    5fa4:	0c 94 7c 3f 	jmp	0x7ef8	; 0x7ef8 <__prologue_saves__>
    5fa8:	dc 01       	movw	r26, r24
    5faa:	2b 01       	movw	r4, r22
    5fac:	fa 01       	movw	r30, r20
    5fae:	9c 91       	ld	r25, X
    5fb0:	92 30       	cpi	r25, 0x02	; 2
    5fb2:	08 f4       	brcc	.+2      	; 0x5fb6 <_fpadd_parts+0x1a>
    5fb4:	39 c1       	rjmp	.+626    	; 0x6228 <_fpadd_parts+0x28c>
    5fb6:	eb 01       	movw	r28, r22
    5fb8:	88 81       	ld	r24, Y
    5fba:	82 30       	cpi	r24, 0x02	; 2
    5fbc:	08 f4       	brcc	.+2      	; 0x5fc0 <_fpadd_parts+0x24>
    5fbe:	33 c1       	rjmp	.+614    	; 0x6226 <_fpadd_parts+0x28a>
    5fc0:	94 30       	cpi	r25, 0x04	; 4
    5fc2:	69 f4       	brne	.+26     	; 0x5fde <_fpadd_parts+0x42>
    5fc4:	84 30       	cpi	r24, 0x04	; 4
    5fc6:	09 f0       	breq	.+2      	; 0x5fca <_fpadd_parts+0x2e>
    5fc8:	2f c1       	rjmp	.+606    	; 0x6228 <_fpadd_parts+0x28c>
    5fca:	11 96       	adiw	r26, 0x01	; 1
    5fcc:	9c 91       	ld	r25, X
    5fce:	11 97       	sbiw	r26, 0x01	; 1
    5fd0:	89 81       	ldd	r24, Y+1	; 0x01
    5fd2:	98 17       	cp	r25, r24
    5fd4:	09 f4       	brne	.+2      	; 0x5fd8 <_fpadd_parts+0x3c>
    5fd6:	28 c1       	rjmp	.+592    	; 0x6228 <_fpadd_parts+0x28c>
    5fd8:	ae e6       	ldi	r26, 0x6E	; 110
    5fda:	b0 e0       	ldi	r27, 0x00	; 0
    5fdc:	25 c1       	rjmp	.+586    	; 0x6228 <_fpadd_parts+0x28c>
    5fde:	84 30       	cpi	r24, 0x04	; 4
    5fe0:	09 f4       	brne	.+2      	; 0x5fe4 <_fpadd_parts+0x48>
    5fe2:	21 c1       	rjmp	.+578    	; 0x6226 <_fpadd_parts+0x28a>
    5fe4:	82 30       	cpi	r24, 0x02	; 2
    5fe6:	a9 f4       	brne	.+42     	; 0x6012 <_fpadd_parts+0x76>
    5fe8:	92 30       	cpi	r25, 0x02	; 2
    5fea:	09 f0       	breq	.+2      	; 0x5fee <_fpadd_parts+0x52>
    5fec:	1d c1       	rjmp	.+570    	; 0x6228 <_fpadd_parts+0x28c>
    5fee:	9a 01       	movw	r18, r20
    5ff0:	ad 01       	movw	r20, r26
    5ff2:	88 e0       	ldi	r24, 0x08	; 8
    5ff4:	ea 01       	movw	r28, r20
    5ff6:	09 90       	ld	r0, Y+
    5ff8:	ae 01       	movw	r20, r28
    5ffa:	e9 01       	movw	r28, r18
    5ffc:	09 92       	st	Y+, r0
    5ffe:	9e 01       	movw	r18, r28
    6000:	81 50       	subi	r24, 0x01	; 1
    6002:	c1 f7       	brne	.-16     	; 0x5ff4 <_fpadd_parts+0x58>
    6004:	e2 01       	movw	r28, r4
    6006:	89 81       	ldd	r24, Y+1	; 0x01
    6008:	11 96       	adiw	r26, 0x01	; 1
    600a:	9c 91       	ld	r25, X
    600c:	89 23       	and	r24, r25
    600e:	81 83       	std	Z+1, r24	; 0x01
    6010:	08 c1       	rjmp	.+528    	; 0x6222 <_fpadd_parts+0x286>
    6012:	92 30       	cpi	r25, 0x02	; 2
    6014:	09 f4       	brne	.+2      	; 0x6018 <_fpadd_parts+0x7c>
    6016:	07 c1       	rjmp	.+526    	; 0x6226 <_fpadd_parts+0x28a>
    6018:	12 96       	adiw	r26, 0x02	; 2
    601a:	2d 90       	ld	r2, X+
    601c:	3c 90       	ld	r3, X
    601e:	13 97       	sbiw	r26, 0x03	; 3
    6020:	eb 01       	movw	r28, r22
    6022:	8a 81       	ldd	r24, Y+2	; 0x02
    6024:	9b 81       	ldd	r25, Y+3	; 0x03
    6026:	14 96       	adiw	r26, 0x04	; 4
    6028:	ad 90       	ld	r10, X+
    602a:	bd 90       	ld	r11, X+
    602c:	cd 90       	ld	r12, X+
    602e:	dc 90       	ld	r13, X
    6030:	17 97       	sbiw	r26, 0x07	; 7
    6032:	ec 80       	ldd	r14, Y+4	; 0x04
    6034:	fd 80       	ldd	r15, Y+5	; 0x05
    6036:	0e 81       	ldd	r16, Y+6	; 0x06
    6038:	1f 81       	ldd	r17, Y+7	; 0x07
    603a:	91 01       	movw	r18, r2
    603c:	28 1b       	sub	r18, r24
    603e:	39 0b       	sbc	r19, r25
    6040:	b9 01       	movw	r22, r18
    6042:	37 ff       	sbrs	r19, 7
    6044:	04 c0       	rjmp	.+8      	; 0x604e <_fpadd_parts+0xb2>
    6046:	66 27       	eor	r22, r22
    6048:	77 27       	eor	r23, r23
    604a:	62 1b       	sub	r22, r18
    604c:	73 0b       	sbc	r23, r19
    604e:	60 32       	cpi	r22, 0x20	; 32
    6050:	71 05       	cpc	r23, r1
    6052:	0c f0       	brlt	.+2      	; 0x6056 <_fpadd_parts+0xba>
    6054:	61 c0       	rjmp	.+194    	; 0x6118 <_fpadd_parts+0x17c>
    6056:	12 16       	cp	r1, r18
    6058:	13 06       	cpc	r1, r19
    605a:	6c f5       	brge	.+90     	; 0x60b6 <_fpadd_parts+0x11a>
    605c:	37 01       	movw	r6, r14
    605e:	48 01       	movw	r8, r16
    6060:	06 2e       	mov	r0, r22
    6062:	04 c0       	rjmp	.+8      	; 0x606c <_fpadd_parts+0xd0>
    6064:	96 94       	lsr	r9
    6066:	87 94       	ror	r8
    6068:	77 94       	ror	r7
    606a:	67 94       	ror	r6
    606c:	0a 94       	dec	r0
    606e:	d2 f7       	brpl	.-12     	; 0x6064 <_fpadd_parts+0xc8>
    6070:	21 e0       	ldi	r18, 0x01	; 1
    6072:	30 e0       	ldi	r19, 0x00	; 0
    6074:	40 e0       	ldi	r20, 0x00	; 0
    6076:	50 e0       	ldi	r21, 0x00	; 0
    6078:	04 c0       	rjmp	.+8      	; 0x6082 <_fpadd_parts+0xe6>
    607a:	22 0f       	add	r18, r18
    607c:	33 1f       	adc	r19, r19
    607e:	44 1f       	adc	r20, r20
    6080:	55 1f       	adc	r21, r21
    6082:	6a 95       	dec	r22
    6084:	d2 f7       	brpl	.-12     	; 0x607a <_fpadd_parts+0xde>
    6086:	21 50       	subi	r18, 0x01	; 1
    6088:	30 40       	sbci	r19, 0x00	; 0
    608a:	40 40       	sbci	r20, 0x00	; 0
    608c:	50 40       	sbci	r21, 0x00	; 0
    608e:	2e 21       	and	r18, r14
    6090:	3f 21       	and	r19, r15
    6092:	40 23       	and	r20, r16
    6094:	51 23       	and	r21, r17
    6096:	21 15       	cp	r18, r1
    6098:	31 05       	cpc	r19, r1
    609a:	41 05       	cpc	r20, r1
    609c:	51 05       	cpc	r21, r1
    609e:	21 f0       	breq	.+8      	; 0x60a8 <_fpadd_parts+0x10c>
    60a0:	21 e0       	ldi	r18, 0x01	; 1
    60a2:	30 e0       	ldi	r19, 0x00	; 0
    60a4:	40 e0       	ldi	r20, 0x00	; 0
    60a6:	50 e0       	ldi	r21, 0x00	; 0
    60a8:	79 01       	movw	r14, r18
    60aa:	8a 01       	movw	r16, r20
    60ac:	e6 28       	or	r14, r6
    60ae:	f7 28       	or	r15, r7
    60b0:	08 29       	or	r16, r8
    60b2:	19 29       	or	r17, r9
    60b4:	3c c0       	rjmp	.+120    	; 0x612e <_fpadd_parts+0x192>
    60b6:	23 2b       	or	r18, r19
    60b8:	d1 f1       	breq	.+116    	; 0x612e <_fpadd_parts+0x192>
    60ba:	26 0e       	add	r2, r22
    60bc:	37 1e       	adc	r3, r23
    60be:	35 01       	movw	r6, r10
    60c0:	46 01       	movw	r8, r12
    60c2:	06 2e       	mov	r0, r22
    60c4:	04 c0       	rjmp	.+8      	; 0x60ce <_fpadd_parts+0x132>
    60c6:	96 94       	lsr	r9
    60c8:	87 94       	ror	r8
    60ca:	77 94       	ror	r7
    60cc:	67 94       	ror	r6
    60ce:	0a 94       	dec	r0
    60d0:	d2 f7       	brpl	.-12     	; 0x60c6 <_fpadd_parts+0x12a>
    60d2:	21 e0       	ldi	r18, 0x01	; 1
    60d4:	30 e0       	ldi	r19, 0x00	; 0
    60d6:	40 e0       	ldi	r20, 0x00	; 0
    60d8:	50 e0       	ldi	r21, 0x00	; 0
    60da:	04 c0       	rjmp	.+8      	; 0x60e4 <_fpadd_parts+0x148>
    60dc:	22 0f       	add	r18, r18
    60de:	33 1f       	adc	r19, r19
    60e0:	44 1f       	adc	r20, r20
    60e2:	55 1f       	adc	r21, r21
    60e4:	6a 95       	dec	r22
    60e6:	d2 f7       	brpl	.-12     	; 0x60dc <_fpadd_parts+0x140>
    60e8:	21 50       	subi	r18, 0x01	; 1
    60ea:	30 40       	sbci	r19, 0x00	; 0
    60ec:	40 40       	sbci	r20, 0x00	; 0
    60ee:	50 40       	sbci	r21, 0x00	; 0
    60f0:	2a 21       	and	r18, r10
    60f2:	3b 21       	and	r19, r11
    60f4:	4c 21       	and	r20, r12
    60f6:	5d 21       	and	r21, r13
    60f8:	21 15       	cp	r18, r1
    60fa:	31 05       	cpc	r19, r1
    60fc:	41 05       	cpc	r20, r1
    60fe:	51 05       	cpc	r21, r1
    6100:	21 f0       	breq	.+8      	; 0x610a <_fpadd_parts+0x16e>
    6102:	21 e0       	ldi	r18, 0x01	; 1
    6104:	30 e0       	ldi	r19, 0x00	; 0
    6106:	40 e0       	ldi	r20, 0x00	; 0
    6108:	50 e0       	ldi	r21, 0x00	; 0
    610a:	59 01       	movw	r10, r18
    610c:	6a 01       	movw	r12, r20
    610e:	a6 28       	or	r10, r6
    6110:	b7 28       	or	r11, r7
    6112:	c8 28       	or	r12, r8
    6114:	d9 28       	or	r13, r9
    6116:	0b c0       	rjmp	.+22     	; 0x612e <_fpadd_parts+0x192>
    6118:	82 15       	cp	r24, r2
    611a:	93 05       	cpc	r25, r3
    611c:	2c f0       	brlt	.+10     	; 0x6128 <_fpadd_parts+0x18c>
    611e:	1c 01       	movw	r2, r24
    6120:	aa 24       	eor	r10, r10
    6122:	bb 24       	eor	r11, r11
    6124:	65 01       	movw	r12, r10
    6126:	03 c0       	rjmp	.+6      	; 0x612e <_fpadd_parts+0x192>
    6128:	ee 24       	eor	r14, r14
    612a:	ff 24       	eor	r15, r15
    612c:	87 01       	movw	r16, r14
    612e:	11 96       	adiw	r26, 0x01	; 1
    6130:	9c 91       	ld	r25, X
    6132:	d2 01       	movw	r26, r4
    6134:	11 96       	adiw	r26, 0x01	; 1
    6136:	8c 91       	ld	r24, X
    6138:	98 17       	cp	r25, r24
    613a:	09 f4       	brne	.+2      	; 0x613e <_fpadd_parts+0x1a2>
    613c:	45 c0       	rjmp	.+138    	; 0x61c8 <_fpadd_parts+0x22c>
    613e:	99 23       	and	r25, r25
    6140:	39 f0       	breq	.+14     	; 0x6150 <_fpadd_parts+0x1b4>
    6142:	a8 01       	movw	r20, r16
    6144:	97 01       	movw	r18, r14
    6146:	2a 19       	sub	r18, r10
    6148:	3b 09       	sbc	r19, r11
    614a:	4c 09       	sbc	r20, r12
    614c:	5d 09       	sbc	r21, r13
    614e:	06 c0       	rjmp	.+12     	; 0x615c <_fpadd_parts+0x1c0>
    6150:	a6 01       	movw	r20, r12
    6152:	95 01       	movw	r18, r10
    6154:	2e 19       	sub	r18, r14
    6156:	3f 09       	sbc	r19, r15
    6158:	40 0b       	sbc	r20, r16
    615a:	51 0b       	sbc	r21, r17
    615c:	57 fd       	sbrc	r21, 7
    615e:	08 c0       	rjmp	.+16     	; 0x6170 <_fpadd_parts+0x1d4>
    6160:	11 82       	std	Z+1, r1	; 0x01
    6162:	33 82       	std	Z+3, r3	; 0x03
    6164:	22 82       	std	Z+2, r2	; 0x02
    6166:	24 83       	std	Z+4, r18	; 0x04
    6168:	35 83       	std	Z+5, r19	; 0x05
    616a:	46 83       	std	Z+6, r20	; 0x06
    616c:	57 83       	std	Z+7, r21	; 0x07
    616e:	1d c0       	rjmp	.+58     	; 0x61aa <_fpadd_parts+0x20e>
    6170:	81 e0       	ldi	r24, 0x01	; 1
    6172:	81 83       	std	Z+1, r24	; 0x01
    6174:	33 82       	std	Z+3, r3	; 0x03
    6176:	22 82       	std	Z+2, r2	; 0x02
    6178:	88 27       	eor	r24, r24
    617a:	99 27       	eor	r25, r25
    617c:	dc 01       	movw	r26, r24
    617e:	82 1b       	sub	r24, r18
    6180:	93 0b       	sbc	r25, r19
    6182:	a4 0b       	sbc	r26, r20
    6184:	b5 0b       	sbc	r27, r21
    6186:	84 83       	std	Z+4, r24	; 0x04
    6188:	95 83       	std	Z+5, r25	; 0x05
    618a:	a6 83       	std	Z+6, r26	; 0x06
    618c:	b7 83       	std	Z+7, r27	; 0x07
    618e:	0d c0       	rjmp	.+26     	; 0x61aa <_fpadd_parts+0x20e>
    6190:	22 0f       	add	r18, r18
    6192:	33 1f       	adc	r19, r19
    6194:	44 1f       	adc	r20, r20
    6196:	55 1f       	adc	r21, r21
    6198:	24 83       	std	Z+4, r18	; 0x04
    619a:	35 83       	std	Z+5, r19	; 0x05
    619c:	46 83       	std	Z+6, r20	; 0x06
    619e:	57 83       	std	Z+7, r21	; 0x07
    61a0:	82 81       	ldd	r24, Z+2	; 0x02
    61a2:	93 81       	ldd	r25, Z+3	; 0x03
    61a4:	01 97       	sbiw	r24, 0x01	; 1
    61a6:	93 83       	std	Z+3, r25	; 0x03
    61a8:	82 83       	std	Z+2, r24	; 0x02
    61aa:	24 81       	ldd	r18, Z+4	; 0x04
    61ac:	35 81       	ldd	r19, Z+5	; 0x05
    61ae:	46 81       	ldd	r20, Z+6	; 0x06
    61b0:	57 81       	ldd	r21, Z+7	; 0x07
    61b2:	da 01       	movw	r26, r20
    61b4:	c9 01       	movw	r24, r18
    61b6:	01 97       	sbiw	r24, 0x01	; 1
    61b8:	a1 09       	sbc	r26, r1
    61ba:	b1 09       	sbc	r27, r1
    61bc:	8f 5f       	subi	r24, 0xFF	; 255
    61be:	9f 4f       	sbci	r25, 0xFF	; 255
    61c0:	af 4f       	sbci	r26, 0xFF	; 255
    61c2:	bf 43       	sbci	r27, 0x3F	; 63
    61c4:	28 f3       	brcs	.-54     	; 0x6190 <_fpadd_parts+0x1f4>
    61c6:	0b c0       	rjmp	.+22     	; 0x61de <_fpadd_parts+0x242>
    61c8:	91 83       	std	Z+1, r25	; 0x01
    61ca:	33 82       	std	Z+3, r3	; 0x03
    61cc:	22 82       	std	Z+2, r2	; 0x02
    61ce:	ea 0c       	add	r14, r10
    61d0:	fb 1c       	adc	r15, r11
    61d2:	0c 1d       	adc	r16, r12
    61d4:	1d 1d       	adc	r17, r13
    61d6:	e4 82       	std	Z+4, r14	; 0x04
    61d8:	f5 82       	std	Z+5, r15	; 0x05
    61da:	06 83       	std	Z+6, r16	; 0x06
    61dc:	17 83       	std	Z+7, r17	; 0x07
    61de:	83 e0       	ldi	r24, 0x03	; 3
    61e0:	80 83       	st	Z, r24
    61e2:	24 81       	ldd	r18, Z+4	; 0x04
    61e4:	35 81       	ldd	r19, Z+5	; 0x05
    61e6:	46 81       	ldd	r20, Z+6	; 0x06
    61e8:	57 81       	ldd	r21, Z+7	; 0x07
    61ea:	57 ff       	sbrs	r21, 7
    61ec:	1a c0       	rjmp	.+52     	; 0x6222 <_fpadd_parts+0x286>
    61ee:	c9 01       	movw	r24, r18
    61f0:	aa 27       	eor	r26, r26
    61f2:	97 fd       	sbrc	r25, 7
    61f4:	a0 95       	com	r26
    61f6:	ba 2f       	mov	r27, r26
    61f8:	81 70       	andi	r24, 0x01	; 1
    61fa:	90 70       	andi	r25, 0x00	; 0
    61fc:	a0 70       	andi	r26, 0x00	; 0
    61fe:	b0 70       	andi	r27, 0x00	; 0
    6200:	56 95       	lsr	r21
    6202:	47 95       	ror	r20
    6204:	37 95       	ror	r19
    6206:	27 95       	ror	r18
    6208:	82 2b       	or	r24, r18
    620a:	93 2b       	or	r25, r19
    620c:	a4 2b       	or	r26, r20
    620e:	b5 2b       	or	r27, r21
    6210:	84 83       	std	Z+4, r24	; 0x04
    6212:	95 83       	std	Z+5, r25	; 0x05
    6214:	a6 83       	std	Z+6, r26	; 0x06
    6216:	b7 83       	std	Z+7, r27	; 0x07
    6218:	82 81       	ldd	r24, Z+2	; 0x02
    621a:	93 81       	ldd	r25, Z+3	; 0x03
    621c:	01 96       	adiw	r24, 0x01	; 1
    621e:	93 83       	std	Z+3, r25	; 0x03
    6220:	82 83       	std	Z+2, r24	; 0x02
    6222:	df 01       	movw	r26, r30
    6224:	01 c0       	rjmp	.+2      	; 0x6228 <_fpadd_parts+0x28c>
    6226:	d2 01       	movw	r26, r4
    6228:	cd 01       	movw	r24, r26
    622a:	cd b7       	in	r28, 0x3d	; 61
    622c:	de b7       	in	r29, 0x3e	; 62
    622e:	e2 e1       	ldi	r30, 0x12	; 18
    6230:	0c 94 98 3f 	jmp	0x7f30	; 0x7f30 <__epilogue_restores__>

00006234 <__subsf3>:
    6234:	a0 e2       	ldi	r26, 0x20	; 32
    6236:	b0 e0       	ldi	r27, 0x00	; 0
    6238:	e0 e2       	ldi	r30, 0x20	; 32
    623a:	f1 e3       	ldi	r31, 0x31	; 49
    623c:	0c 94 88 3f 	jmp	0x7f10	; 0x7f10 <__prologue_saves__+0x18>
    6240:	69 83       	std	Y+1, r22	; 0x01
    6242:	7a 83       	std	Y+2, r23	; 0x02
    6244:	8b 83       	std	Y+3, r24	; 0x03
    6246:	9c 83       	std	Y+4, r25	; 0x04
    6248:	2d 83       	std	Y+5, r18	; 0x05
    624a:	3e 83       	std	Y+6, r19	; 0x06
    624c:	4f 83       	std	Y+7, r20	; 0x07
    624e:	58 87       	std	Y+8, r21	; 0x08
    6250:	e9 e0       	ldi	r30, 0x09	; 9
    6252:	ee 2e       	mov	r14, r30
    6254:	f1 2c       	mov	r15, r1
    6256:	ec 0e       	add	r14, r28
    6258:	fd 1e       	adc	r15, r29
    625a:	ce 01       	movw	r24, r28
    625c:	01 96       	adiw	r24, 0x01	; 1
    625e:	b7 01       	movw	r22, r14
    6260:	0e 94 2b 34 	call	0x6856	; 0x6856 <__unpack_f>
    6264:	8e 01       	movw	r16, r28
    6266:	0f 5e       	subi	r16, 0xEF	; 239
    6268:	1f 4f       	sbci	r17, 0xFF	; 255
    626a:	ce 01       	movw	r24, r28
    626c:	05 96       	adiw	r24, 0x05	; 5
    626e:	b8 01       	movw	r22, r16
    6270:	0e 94 2b 34 	call	0x6856	; 0x6856 <__unpack_f>
    6274:	8a 89       	ldd	r24, Y+18	; 0x12
    6276:	91 e0       	ldi	r25, 0x01	; 1
    6278:	89 27       	eor	r24, r25
    627a:	8a 8b       	std	Y+18, r24	; 0x12
    627c:	c7 01       	movw	r24, r14
    627e:	b8 01       	movw	r22, r16
    6280:	ae 01       	movw	r20, r28
    6282:	47 5e       	subi	r20, 0xE7	; 231
    6284:	5f 4f       	sbci	r21, 0xFF	; 255
    6286:	0e 94 ce 2f 	call	0x5f9c	; 0x5f9c <_fpadd_parts>
    628a:	0e 94 56 33 	call	0x66ac	; 0x66ac <__pack_f>
    628e:	a0 96       	adiw	r28, 0x20	; 32
    6290:	e6 e0       	ldi	r30, 0x06	; 6
    6292:	0c 94 a4 3f 	jmp	0x7f48	; 0x7f48 <__epilogue_restores__+0x18>

00006296 <__addsf3>:
    6296:	a0 e2       	ldi	r26, 0x20	; 32
    6298:	b0 e0       	ldi	r27, 0x00	; 0
    629a:	e1 e5       	ldi	r30, 0x51	; 81
    629c:	f1 e3       	ldi	r31, 0x31	; 49
    629e:	0c 94 88 3f 	jmp	0x7f10	; 0x7f10 <__prologue_saves__+0x18>
    62a2:	69 83       	std	Y+1, r22	; 0x01
    62a4:	7a 83       	std	Y+2, r23	; 0x02
    62a6:	8b 83       	std	Y+3, r24	; 0x03
    62a8:	9c 83       	std	Y+4, r25	; 0x04
    62aa:	2d 83       	std	Y+5, r18	; 0x05
    62ac:	3e 83       	std	Y+6, r19	; 0x06
    62ae:	4f 83       	std	Y+7, r20	; 0x07
    62b0:	58 87       	std	Y+8, r21	; 0x08
    62b2:	f9 e0       	ldi	r31, 0x09	; 9
    62b4:	ef 2e       	mov	r14, r31
    62b6:	f1 2c       	mov	r15, r1
    62b8:	ec 0e       	add	r14, r28
    62ba:	fd 1e       	adc	r15, r29
    62bc:	ce 01       	movw	r24, r28
    62be:	01 96       	adiw	r24, 0x01	; 1
    62c0:	b7 01       	movw	r22, r14
    62c2:	0e 94 2b 34 	call	0x6856	; 0x6856 <__unpack_f>
    62c6:	8e 01       	movw	r16, r28
    62c8:	0f 5e       	subi	r16, 0xEF	; 239
    62ca:	1f 4f       	sbci	r17, 0xFF	; 255
    62cc:	ce 01       	movw	r24, r28
    62ce:	05 96       	adiw	r24, 0x05	; 5
    62d0:	b8 01       	movw	r22, r16
    62d2:	0e 94 2b 34 	call	0x6856	; 0x6856 <__unpack_f>
    62d6:	c7 01       	movw	r24, r14
    62d8:	b8 01       	movw	r22, r16
    62da:	ae 01       	movw	r20, r28
    62dc:	47 5e       	subi	r20, 0xE7	; 231
    62de:	5f 4f       	sbci	r21, 0xFF	; 255
    62e0:	0e 94 ce 2f 	call	0x5f9c	; 0x5f9c <_fpadd_parts>
    62e4:	0e 94 56 33 	call	0x66ac	; 0x66ac <__pack_f>
    62e8:	a0 96       	adiw	r28, 0x20	; 32
    62ea:	e6 e0       	ldi	r30, 0x06	; 6
    62ec:	0c 94 a4 3f 	jmp	0x7f48	; 0x7f48 <__epilogue_restores__+0x18>

000062f0 <__mulsf3>:
    62f0:	a0 e2       	ldi	r26, 0x20	; 32
    62f2:	b0 e0       	ldi	r27, 0x00	; 0
    62f4:	ee e7       	ldi	r30, 0x7E	; 126
    62f6:	f1 e3       	ldi	r31, 0x31	; 49
    62f8:	0c 94 7c 3f 	jmp	0x7ef8	; 0x7ef8 <__prologue_saves__>
    62fc:	69 83       	std	Y+1, r22	; 0x01
    62fe:	7a 83       	std	Y+2, r23	; 0x02
    6300:	8b 83       	std	Y+3, r24	; 0x03
    6302:	9c 83       	std	Y+4, r25	; 0x04
    6304:	2d 83       	std	Y+5, r18	; 0x05
    6306:	3e 83       	std	Y+6, r19	; 0x06
    6308:	4f 83       	std	Y+7, r20	; 0x07
    630a:	58 87       	std	Y+8, r21	; 0x08
    630c:	ce 01       	movw	r24, r28
    630e:	01 96       	adiw	r24, 0x01	; 1
    6310:	be 01       	movw	r22, r28
    6312:	67 5f       	subi	r22, 0xF7	; 247
    6314:	7f 4f       	sbci	r23, 0xFF	; 255
    6316:	0e 94 2b 34 	call	0x6856	; 0x6856 <__unpack_f>
    631a:	ce 01       	movw	r24, r28
    631c:	05 96       	adiw	r24, 0x05	; 5
    631e:	be 01       	movw	r22, r28
    6320:	6f 5e       	subi	r22, 0xEF	; 239
    6322:	7f 4f       	sbci	r23, 0xFF	; 255
    6324:	0e 94 2b 34 	call	0x6856	; 0x6856 <__unpack_f>
    6328:	99 85       	ldd	r25, Y+9	; 0x09
    632a:	92 30       	cpi	r25, 0x02	; 2
    632c:	88 f0       	brcs	.+34     	; 0x6350 <__mulsf3+0x60>
    632e:	89 89       	ldd	r24, Y+17	; 0x11
    6330:	82 30       	cpi	r24, 0x02	; 2
    6332:	c8 f0       	brcs	.+50     	; 0x6366 <__mulsf3+0x76>
    6334:	94 30       	cpi	r25, 0x04	; 4
    6336:	19 f4       	brne	.+6      	; 0x633e <__mulsf3+0x4e>
    6338:	82 30       	cpi	r24, 0x02	; 2
    633a:	51 f4       	brne	.+20     	; 0x6350 <__mulsf3+0x60>
    633c:	04 c0       	rjmp	.+8      	; 0x6346 <__mulsf3+0x56>
    633e:	84 30       	cpi	r24, 0x04	; 4
    6340:	29 f4       	brne	.+10     	; 0x634c <__mulsf3+0x5c>
    6342:	92 30       	cpi	r25, 0x02	; 2
    6344:	81 f4       	brne	.+32     	; 0x6366 <__mulsf3+0x76>
    6346:	8e e6       	ldi	r24, 0x6E	; 110
    6348:	90 e0       	ldi	r25, 0x00	; 0
    634a:	c6 c0       	rjmp	.+396    	; 0x64d8 <__mulsf3+0x1e8>
    634c:	92 30       	cpi	r25, 0x02	; 2
    634e:	49 f4       	brne	.+18     	; 0x6362 <__mulsf3+0x72>
    6350:	20 e0       	ldi	r18, 0x00	; 0
    6352:	9a 85       	ldd	r25, Y+10	; 0x0a
    6354:	8a 89       	ldd	r24, Y+18	; 0x12
    6356:	98 13       	cpse	r25, r24
    6358:	21 e0       	ldi	r18, 0x01	; 1
    635a:	2a 87       	std	Y+10, r18	; 0x0a
    635c:	ce 01       	movw	r24, r28
    635e:	09 96       	adiw	r24, 0x09	; 9
    6360:	bb c0       	rjmp	.+374    	; 0x64d8 <__mulsf3+0x1e8>
    6362:	82 30       	cpi	r24, 0x02	; 2
    6364:	49 f4       	brne	.+18     	; 0x6378 <__mulsf3+0x88>
    6366:	20 e0       	ldi	r18, 0x00	; 0
    6368:	9a 85       	ldd	r25, Y+10	; 0x0a
    636a:	8a 89       	ldd	r24, Y+18	; 0x12
    636c:	98 13       	cpse	r25, r24
    636e:	21 e0       	ldi	r18, 0x01	; 1
    6370:	2a 8b       	std	Y+18, r18	; 0x12
    6372:	ce 01       	movw	r24, r28
    6374:	41 96       	adiw	r24, 0x11	; 17
    6376:	b0 c0       	rjmp	.+352    	; 0x64d8 <__mulsf3+0x1e8>
    6378:	2d 84       	ldd	r2, Y+13	; 0x0d
    637a:	3e 84       	ldd	r3, Y+14	; 0x0e
    637c:	4f 84       	ldd	r4, Y+15	; 0x0f
    637e:	58 88       	ldd	r5, Y+16	; 0x10
    6380:	6d 88       	ldd	r6, Y+21	; 0x15
    6382:	7e 88       	ldd	r7, Y+22	; 0x16
    6384:	8f 88       	ldd	r8, Y+23	; 0x17
    6386:	98 8c       	ldd	r9, Y+24	; 0x18
    6388:	ee 24       	eor	r14, r14
    638a:	ff 24       	eor	r15, r15
    638c:	87 01       	movw	r16, r14
    638e:	aa 24       	eor	r10, r10
    6390:	bb 24       	eor	r11, r11
    6392:	65 01       	movw	r12, r10
    6394:	40 e0       	ldi	r20, 0x00	; 0
    6396:	50 e0       	ldi	r21, 0x00	; 0
    6398:	60 e0       	ldi	r22, 0x00	; 0
    639a:	70 e0       	ldi	r23, 0x00	; 0
    639c:	e0 e0       	ldi	r30, 0x00	; 0
    639e:	f0 e0       	ldi	r31, 0x00	; 0
    63a0:	c1 01       	movw	r24, r2
    63a2:	81 70       	andi	r24, 0x01	; 1
    63a4:	90 70       	andi	r25, 0x00	; 0
    63a6:	89 2b       	or	r24, r25
    63a8:	e9 f0       	breq	.+58     	; 0x63e4 <__mulsf3+0xf4>
    63aa:	e6 0c       	add	r14, r6
    63ac:	f7 1c       	adc	r15, r7
    63ae:	08 1d       	adc	r16, r8
    63b0:	19 1d       	adc	r17, r9
    63b2:	9a 01       	movw	r18, r20
    63b4:	ab 01       	movw	r20, r22
    63b6:	2a 0d       	add	r18, r10
    63b8:	3b 1d       	adc	r19, r11
    63ba:	4c 1d       	adc	r20, r12
    63bc:	5d 1d       	adc	r21, r13
    63be:	80 e0       	ldi	r24, 0x00	; 0
    63c0:	90 e0       	ldi	r25, 0x00	; 0
    63c2:	a0 e0       	ldi	r26, 0x00	; 0
    63c4:	b0 e0       	ldi	r27, 0x00	; 0
    63c6:	e6 14       	cp	r14, r6
    63c8:	f7 04       	cpc	r15, r7
    63ca:	08 05       	cpc	r16, r8
    63cc:	19 05       	cpc	r17, r9
    63ce:	20 f4       	brcc	.+8      	; 0x63d8 <__mulsf3+0xe8>
    63d0:	81 e0       	ldi	r24, 0x01	; 1
    63d2:	90 e0       	ldi	r25, 0x00	; 0
    63d4:	a0 e0       	ldi	r26, 0x00	; 0
    63d6:	b0 e0       	ldi	r27, 0x00	; 0
    63d8:	ba 01       	movw	r22, r20
    63da:	a9 01       	movw	r20, r18
    63dc:	48 0f       	add	r20, r24
    63de:	59 1f       	adc	r21, r25
    63e0:	6a 1f       	adc	r22, r26
    63e2:	7b 1f       	adc	r23, r27
    63e4:	aa 0c       	add	r10, r10
    63e6:	bb 1c       	adc	r11, r11
    63e8:	cc 1c       	adc	r12, r12
    63ea:	dd 1c       	adc	r13, r13
    63ec:	97 fe       	sbrs	r9, 7
    63ee:	08 c0       	rjmp	.+16     	; 0x6400 <__mulsf3+0x110>
    63f0:	81 e0       	ldi	r24, 0x01	; 1
    63f2:	90 e0       	ldi	r25, 0x00	; 0
    63f4:	a0 e0       	ldi	r26, 0x00	; 0
    63f6:	b0 e0       	ldi	r27, 0x00	; 0
    63f8:	a8 2a       	or	r10, r24
    63fa:	b9 2a       	or	r11, r25
    63fc:	ca 2a       	or	r12, r26
    63fe:	db 2a       	or	r13, r27
    6400:	31 96       	adiw	r30, 0x01	; 1
    6402:	e0 32       	cpi	r30, 0x20	; 32
    6404:	f1 05       	cpc	r31, r1
    6406:	49 f0       	breq	.+18     	; 0x641a <__mulsf3+0x12a>
    6408:	66 0c       	add	r6, r6
    640a:	77 1c       	adc	r7, r7
    640c:	88 1c       	adc	r8, r8
    640e:	99 1c       	adc	r9, r9
    6410:	56 94       	lsr	r5
    6412:	47 94       	ror	r4
    6414:	37 94       	ror	r3
    6416:	27 94       	ror	r2
    6418:	c3 cf       	rjmp	.-122    	; 0x63a0 <__mulsf3+0xb0>
    641a:	fa 85       	ldd	r31, Y+10	; 0x0a
    641c:	ea 89       	ldd	r30, Y+18	; 0x12
    641e:	2b 89       	ldd	r18, Y+19	; 0x13
    6420:	3c 89       	ldd	r19, Y+20	; 0x14
    6422:	8b 85       	ldd	r24, Y+11	; 0x0b
    6424:	9c 85       	ldd	r25, Y+12	; 0x0c
    6426:	28 0f       	add	r18, r24
    6428:	39 1f       	adc	r19, r25
    642a:	2e 5f       	subi	r18, 0xFE	; 254
    642c:	3f 4f       	sbci	r19, 0xFF	; 255
    642e:	17 c0       	rjmp	.+46     	; 0x645e <__mulsf3+0x16e>
    6430:	ca 01       	movw	r24, r20
    6432:	81 70       	andi	r24, 0x01	; 1
    6434:	90 70       	andi	r25, 0x00	; 0
    6436:	89 2b       	or	r24, r25
    6438:	61 f0       	breq	.+24     	; 0x6452 <__mulsf3+0x162>
    643a:	16 95       	lsr	r17
    643c:	07 95       	ror	r16
    643e:	f7 94       	ror	r15
    6440:	e7 94       	ror	r14
    6442:	80 e0       	ldi	r24, 0x00	; 0
    6444:	90 e0       	ldi	r25, 0x00	; 0
    6446:	a0 e0       	ldi	r26, 0x00	; 0
    6448:	b0 e8       	ldi	r27, 0x80	; 128
    644a:	e8 2a       	or	r14, r24
    644c:	f9 2a       	or	r15, r25
    644e:	0a 2b       	or	r16, r26
    6450:	1b 2b       	or	r17, r27
    6452:	76 95       	lsr	r23
    6454:	67 95       	ror	r22
    6456:	57 95       	ror	r21
    6458:	47 95       	ror	r20
    645a:	2f 5f       	subi	r18, 0xFF	; 255
    645c:	3f 4f       	sbci	r19, 0xFF	; 255
    645e:	77 fd       	sbrc	r23, 7
    6460:	e7 cf       	rjmp	.-50     	; 0x6430 <__mulsf3+0x140>
    6462:	0c c0       	rjmp	.+24     	; 0x647c <__mulsf3+0x18c>
    6464:	44 0f       	add	r20, r20
    6466:	55 1f       	adc	r21, r21
    6468:	66 1f       	adc	r22, r22
    646a:	77 1f       	adc	r23, r23
    646c:	17 fd       	sbrc	r17, 7
    646e:	41 60       	ori	r20, 0x01	; 1
    6470:	ee 0c       	add	r14, r14
    6472:	ff 1c       	adc	r15, r15
    6474:	00 1f       	adc	r16, r16
    6476:	11 1f       	adc	r17, r17
    6478:	21 50       	subi	r18, 0x01	; 1
    647a:	30 40       	sbci	r19, 0x00	; 0
    647c:	40 30       	cpi	r20, 0x00	; 0
    647e:	90 e0       	ldi	r25, 0x00	; 0
    6480:	59 07       	cpc	r21, r25
    6482:	90 e0       	ldi	r25, 0x00	; 0
    6484:	69 07       	cpc	r22, r25
    6486:	90 e4       	ldi	r25, 0x40	; 64
    6488:	79 07       	cpc	r23, r25
    648a:	60 f3       	brcs	.-40     	; 0x6464 <__mulsf3+0x174>
    648c:	2b 8f       	std	Y+27, r18	; 0x1b
    648e:	3c 8f       	std	Y+28, r19	; 0x1c
    6490:	db 01       	movw	r26, r22
    6492:	ca 01       	movw	r24, r20
    6494:	8f 77       	andi	r24, 0x7F	; 127
    6496:	90 70       	andi	r25, 0x00	; 0
    6498:	a0 70       	andi	r26, 0x00	; 0
    649a:	b0 70       	andi	r27, 0x00	; 0
    649c:	80 34       	cpi	r24, 0x40	; 64
    649e:	91 05       	cpc	r25, r1
    64a0:	a1 05       	cpc	r26, r1
    64a2:	b1 05       	cpc	r27, r1
    64a4:	61 f4       	brne	.+24     	; 0x64be <__mulsf3+0x1ce>
    64a6:	47 fd       	sbrc	r20, 7
    64a8:	0a c0       	rjmp	.+20     	; 0x64be <__mulsf3+0x1ce>
    64aa:	e1 14       	cp	r14, r1
    64ac:	f1 04       	cpc	r15, r1
    64ae:	01 05       	cpc	r16, r1
    64b0:	11 05       	cpc	r17, r1
    64b2:	29 f0       	breq	.+10     	; 0x64be <__mulsf3+0x1ce>
    64b4:	40 5c       	subi	r20, 0xC0	; 192
    64b6:	5f 4f       	sbci	r21, 0xFF	; 255
    64b8:	6f 4f       	sbci	r22, 0xFF	; 255
    64ba:	7f 4f       	sbci	r23, 0xFF	; 255
    64bc:	40 78       	andi	r20, 0x80	; 128
    64be:	1a 8e       	std	Y+26, r1	; 0x1a
    64c0:	fe 17       	cp	r31, r30
    64c2:	11 f0       	breq	.+4      	; 0x64c8 <__mulsf3+0x1d8>
    64c4:	81 e0       	ldi	r24, 0x01	; 1
    64c6:	8a 8f       	std	Y+26, r24	; 0x1a
    64c8:	4d 8f       	std	Y+29, r20	; 0x1d
    64ca:	5e 8f       	std	Y+30, r21	; 0x1e
    64cc:	6f 8f       	std	Y+31, r22	; 0x1f
    64ce:	78 a3       	std	Y+32, r23	; 0x20
    64d0:	83 e0       	ldi	r24, 0x03	; 3
    64d2:	89 8f       	std	Y+25, r24	; 0x19
    64d4:	ce 01       	movw	r24, r28
    64d6:	49 96       	adiw	r24, 0x19	; 25
    64d8:	0e 94 56 33 	call	0x66ac	; 0x66ac <__pack_f>
    64dc:	a0 96       	adiw	r28, 0x20	; 32
    64de:	e2 e1       	ldi	r30, 0x12	; 18
    64e0:	0c 94 98 3f 	jmp	0x7f30	; 0x7f30 <__epilogue_restores__>

000064e4 <__gtsf2>:
    64e4:	a8 e1       	ldi	r26, 0x18	; 24
    64e6:	b0 e0       	ldi	r27, 0x00	; 0
    64e8:	e8 e7       	ldi	r30, 0x78	; 120
    64ea:	f2 e3       	ldi	r31, 0x32	; 50
    64ec:	0c 94 88 3f 	jmp	0x7f10	; 0x7f10 <__prologue_saves__+0x18>
    64f0:	69 83       	std	Y+1, r22	; 0x01
    64f2:	7a 83       	std	Y+2, r23	; 0x02
    64f4:	8b 83       	std	Y+3, r24	; 0x03
    64f6:	9c 83       	std	Y+4, r25	; 0x04
    64f8:	2d 83       	std	Y+5, r18	; 0x05
    64fa:	3e 83       	std	Y+6, r19	; 0x06
    64fc:	4f 83       	std	Y+7, r20	; 0x07
    64fe:	58 87       	std	Y+8, r21	; 0x08
    6500:	89 e0       	ldi	r24, 0x09	; 9
    6502:	e8 2e       	mov	r14, r24
    6504:	f1 2c       	mov	r15, r1
    6506:	ec 0e       	add	r14, r28
    6508:	fd 1e       	adc	r15, r29
    650a:	ce 01       	movw	r24, r28
    650c:	01 96       	adiw	r24, 0x01	; 1
    650e:	b7 01       	movw	r22, r14
    6510:	0e 94 2b 34 	call	0x6856	; 0x6856 <__unpack_f>
    6514:	8e 01       	movw	r16, r28
    6516:	0f 5e       	subi	r16, 0xEF	; 239
    6518:	1f 4f       	sbci	r17, 0xFF	; 255
    651a:	ce 01       	movw	r24, r28
    651c:	05 96       	adiw	r24, 0x05	; 5
    651e:	b8 01       	movw	r22, r16
    6520:	0e 94 2b 34 	call	0x6856	; 0x6856 <__unpack_f>
    6524:	89 85       	ldd	r24, Y+9	; 0x09
    6526:	82 30       	cpi	r24, 0x02	; 2
    6528:	40 f0       	brcs	.+16     	; 0x653a <__gtsf2+0x56>
    652a:	89 89       	ldd	r24, Y+17	; 0x11
    652c:	82 30       	cpi	r24, 0x02	; 2
    652e:	28 f0       	brcs	.+10     	; 0x653a <__gtsf2+0x56>
    6530:	c7 01       	movw	r24, r14
    6532:	b8 01       	movw	r22, r16
    6534:	0e 94 a3 34 	call	0x6946	; 0x6946 <__fpcmp_parts_f>
    6538:	01 c0       	rjmp	.+2      	; 0x653c <__gtsf2+0x58>
    653a:	8f ef       	ldi	r24, 0xFF	; 255
    653c:	68 96       	adiw	r28, 0x18	; 24
    653e:	e6 e0       	ldi	r30, 0x06	; 6
    6540:	0c 94 a4 3f 	jmp	0x7f48	; 0x7f48 <__epilogue_restores__+0x18>

00006544 <__gesf2>:
    6544:	a8 e1       	ldi	r26, 0x18	; 24
    6546:	b0 e0       	ldi	r27, 0x00	; 0
    6548:	e8 ea       	ldi	r30, 0xA8	; 168
    654a:	f2 e3       	ldi	r31, 0x32	; 50
    654c:	0c 94 88 3f 	jmp	0x7f10	; 0x7f10 <__prologue_saves__+0x18>
    6550:	69 83       	std	Y+1, r22	; 0x01
    6552:	7a 83       	std	Y+2, r23	; 0x02
    6554:	8b 83       	std	Y+3, r24	; 0x03
    6556:	9c 83       	std	Y+4, r25	; 0x04
    6558:	2d 83       	std	Y+5, r18	; 0x05
    655a:	3e 83       	std	Y+6, r19	; 0x06
    655c:	4f 83       	std	Y+7, r20	; 0x07
    655e:	58 87       	std	Y+8, r21	; 0x08
    6560:	89 e0       	ldi	r24, 0x09	; 9
    6562:	e8 2e       	mov	r14, r24
    6564:	f1 2c       	mov	r15, r1
    6566:	ec 0e       	add	r14, r28
    6568:	fd 1e       	adc	r15, r29
    656a:	ce 01       	movw	r24, r28
    656c:	01 96       	adiw	r24, 0x01	; 1
    656e:	b7 01       	movw	r22, r14
    6570:	0e 94 2b 34 	call	0x6856	; 0x6856 <__unpack_f>
    6574:	8e 01       	movw	r16, r28
    6576:	0f 5e       	subi	r16, 0xEF	; 239
    6578:	1f 4f       	sbci	r17, 0xFF	; 255
    657a:	ce 01       	movw	r24, r28
    657c:	05 96       	adiw	r24, 0x05	; 5
    657e:	b8 01       	movw	r22, r16
    6580:	0e 94 2b 34 	call	0x6856	; 0x6856 <__unpack_f>
    6584:	89 85       	ldd	r24, Y+9	; 0x09
    6586:	82 30       	cpi	r24, 0x02	; 2
    6588:	40 f0       	brcs	.+16     	; 0x659a <__gesf2+0x56>
    658a:	89 89       	ldd	r24, Y+17	; 0x11
    658c:	82 30       	cpi	r24, 0x02	; 2
    658e:	28 f0       	brcs	.+10     	; 0x659a <__gesf2+0x56>
    6590:	c7 01       	movw	r24, r14
    6592:	b8 01       	movw	r22, r16
    6594:	0e 94 a3 34 	call	0x6946	; 0x6946 <__fpcmp_parts_f>
    6598:	01 c0       	rjmp	.+2      	; 0x659c <__gesf2+0x58>
    659a:	8f ef       	ldi	r24, 0xFF	; 255
    659c:	68 96       	adiw	r28, 0x18	; 24
    659e:	e6 e0       	ldi	r30, 0x06	; 6
    65a0:	0c 94 a4 3f 	jmp	0x7f48	; 0x7f48 <__epilogue_restores__+0x18>

000065a4 <__ltsf2>:
    65a4:	a8 e1       	ldi	r26, 0x18	; 24
    65a6:	b0 e0       	ldi	r27, 0x00	; 0
    65a8:	e8 ed       	ldi	r30, 0xD8	; 216
    65aa:	f2 e3       	ldi	r31, 0x32	; 50
    65ac:	0c 94 88 3f 	jmp	0x7f10	; 0x7f10 <__prologue_saves__+0x18>
    65b0:	69 83       	std	Y+1, r22	; 0x01
    65b2:	7a 83       	std	Y+2, r23	; 0x02
    65b4:	8b 83       	std	Y+3, r24	; 0x03
    65b6:	9c 83       	std	Y+4, r25	; 0x04
    65b8:	2d 83       	std	Y+5, r18	; 0x05
    65ba:	3e 83       	std	Y+6, r19	; 0x06
    65bc:	4f 83       	std	Y+7, r20	; 0x07
    65be:	58 87       	std	Y+8, r21	; 0x08
    65c0:	89 e0       	ldi	r24, 0x09	; 9
    65c2:	e8 2e       	mov	r14, r24
    65c4:	f1 2c       	mov	r15, r1
    65c6:	ec 0e       	add	r14, r28
    65c8:	fd 1e       	adc	r15, r29
    65ca:	ce 01       	movw	r24, r28
    65cc:	01 96       	adiw	r24, 0x01	; 1
    65ce:	b7 01       	movw	r22, r14
    65d0:	0e 94 2b 34 	call	0x6856	; 0x6856 <__unpack_f>
    65d4:	8e 01       	movw	r16, r28
    65d6:	0f 5e       	subi	r16, 0xEF	; 239
    65d8:	1f 4f       	sbci	r17, 0xFF	; 255
    65da:	ce 01       	movw	r24, r28
    65dc:	05 96       	adiw	r24, 0x05	; 5
    65de:	b8 01       	movw	r22, r16
    65e0:	0e 94 2b 34 	call	0x6856	; 0x6856 <__unpack_f>
    65e4:	89 85       	ldd	r24, Y+9	; 0x09
    65e6:	82 30       	cpi	r24, 0x02	; 2
    65e8:	40 f0       	brcs	.+16     	; 0x65fa <__ltsf2+0x56>
    65ea:	89 89       	ldd	r24, Y+17	; 0x11
    65ec:	82 30       	cpi	r24, 0x02	; 2
    65ee:	28 f0       	brcs	.+10     	; 0x65fa <__ltsf2+0x56>
    65f0:	c7 01       	movw	r24, r14
    65f2:	b8 01       	movw	r22, r16
    65f4:	0e 94 a3 34 	call	0x6946	; 0x6946 <__fpcmp_parts_f>
    65f8:	01 c0       	rjmp	.+2      	; 0x65fc <__ltsf2+0x58>
    65fa:	81 e0       	ldi	r24, 0x01	; 1
    65fc:	68 96       	adiw	r28, 0x18	; 24
    65fe:	e6 e0       	ldi	r30, 0x06	; 6
    6600:	0c 94 a4 3f 	jmp	0x7f48	; 0x7f48 <__epilogue_restores__+0x18>

00006604 <__fixsfsi>:
    6604:	ac e0       	ldi	r26, 0x0C	; 12
    6606:	b0 e0       	ldi	r27, 0x00	; 0
    6608:	e8 e0       	ldi	r30, 0x08	; 8
    660a:	f3 e3       	ldi	r31, 0x33	; 51
    660c:	0c 94 8c 3f 	jmp	0x7f18	; 0x7f18 <__prologue_saves__+0x20>
    6610:	69 83       	std	Y+1, r22	; 0x01
    6612:	7a 83       	std	Y+2, r23	; 0x02
    6614:	8b 83       	std	Y+3, r24	; 0x03
    6616:	9c 83       	std	Y+4, r25	; 0x04
    6618:	ce 01       	movw	r24, r28
    661a:	01 96       	adiw	r24, 0x01	; 1
    661c:	be 01       	movw	r22, r28
    661e:	6b 5f       	subi	r22, 0xFB	; 251
    6620:	7f 4f       	sbci	r23, 0xFF	; 255
    6622:	0e 94 2b 34 	call	0x6856	; 0x6856 <__unpack_f>
    6626:	8d 81       	ldd	r24, Y+5	; 0x05
    6628:	82 30       	cpi	r24, 0x02	; 2
    662a:	61 f1       	breq	.+88     	; 0x6684 <__fixsfsi+0x80>
    662c:	82 30       	cpi	r24, 0x02	; 2
    662e:	50 f1       	brcs	.+84     	; 0x6684 <__fixsfsi+0x80>
    6630:	84 30       	cpi	r24, 0x04	; 4
    6632:	21 f4       	brne	.+8      	; 0x663c <__fixsfsi+0x38>
    6634:	8e 81       	ldd	r24, Y+6	; 0x06
    6636:	88 23       	and	r24, r24
    6638:	51 f1       	breq	.+84     	; 0x668e <__fixsfsi+0x8a>
    663a:	2e c0       	rjmp	.+92     	; 0x6698 <__fixsfsi+0x94>
    663c:	2f 81       	ldd	r18, Y+7	; 0x07
    663e:	38 85       	ldd	r19, Y+8	; 0x08
    6640:	37 fd       	sbrc	r19, 7
    6642:	20 c0       	rjmp	.+64     	; 0x6684 <__fixsfsi+0x80>
    6644:	6e 81       	ldd	r22, Y+6	; 0x06
    6646:	2f 31       	cpi	r18, 0x1F	; 31
    6648:	31 05       	cpc	r19, r1
    664a:	1c f0       	brlt	.+6      	; 0x6652 <__fixsfsi+0x4e>
    664c:	66 23       	and	r22, r22
    664e:	f9 f0       	breq	.+62     	; 0x668e <__fixsfsi+0x8a>
    6650:	23 c0       	rjmp	.+70     	; 0x6698 <__fixsfsi+0x94>
    6652:	8e e1       	ldi	r24, 0x1E	; 30
    6654:	90 e0       	ldi	r25, 0x00	; 0
    6656:	82 1b       	sub	r24, r18
    6658:	93 0b       	sbc	r25, r19
    665a:	29 85       	ldd	r18, Y+9	; 0x09
    665c:	3a 85       	ldd	r19, Y+10	; 0x0a
    665e:	4b 85       	ldd	r20, Y+11	; 0x0b
    6660:	5c 85       	ldd	r21, Y+12	; 0x0c
    6662:	04 c0       	rjmp	.+8      	; 0x666c <__fixsfsi+0x68>
    6664:	56 95       	lsr	r21
    6666:	47 95       	ror	r20
    6668:	37 95       	ror	r19
    666a:	27 95       	ror	r18
    666c:	8a 95       	dec	r24
    666e:	d2 f7       	brpl	.-12     	; 0x6664 <__fixsfsi+0x60>
    6670:	66 23       	and	r22, r22
    6672:	b1 f0       	breq	.+44     	; 0x66a0 <__fixsfsi+0x9c>
    6674:	50 95       	com	r21
    6676:	40 95       	com	r20
    6678:	30 95       	com	r19
    667a:	21 95       	neg	r18
    667c:	3f 4f       	sbci	r19, 0xFF	; 255
    667e:	4f 4f       	sbci	r20, 0xFF	; 255
    6680:	5f 4f       	sbci	r21, 0xFF	; 255
    6682:	0e c0       	rjmp	.+28     	; 0x66a0 <__fixsfsi+0x9c>
    6684:	20 e0       	ldi	r18, 0x00	; 0
    6686:	30 e0       	ldi	r19, 0x00	; 0
    6688:	40 e0       	ldi	r20, 0x00	; 0
    668a:	50 e0       	ldi	r21, 0x00	; 0
    668c:	09 c0       	rjmp	.+18     	; 0x66a0 <__fixsfsi+0x9c>
    668e:	2f ef       	ldi	r18, 0xFF	; 255
    6690:	3f ef       	ldi	r19, 0xFF	; 255
    6692:	4f ef       	ldi	r20, 0xFF	; 255
    6694:	5f e7       	ldi	r21, 0x7F	; 127
    6696:	04 c0       	rjmp	.+8      	; 0x66a0 <__fixsfsi+0x9c>
    6698:	20 e0       	ldi	r18, 0x00	; 0
    669a:	30 e0       	ldi	r19, 0x00	; 0
    669c:	40 e0       	ldi	r20, 0x00	; 0
    669e:	50 e8       	ldi	r21, 0x80	; 128
    66a0:	b9 01       	movw	r22, r18
    66a2:	ca 01       	movw	r24, r20
    66a4:	2c 96       	adiw	r28, 0x0c	; 12
    66a6:	e2 e0       	ldi	r30, 0x02	; 2
    66a8:	0c 94 a8 3f 	jmp	0x7f50	; 0x7f50 <__epilogue_restores__+0x20>

000066ac <__pack_f>:
    66ac:	df 92       	push	r13
    66ae:	ef 92       	push	r14
    66b0:	ff 92       	push	r15
    66b2:	0f 93       	push	r16
    66b4:	1f 93       	push	r17
    66b6:	fc 01       	movw	r30, r24
    66b8:	e4 80       	ldd	r14, Z+4	; 0x04
    66ba:	f5 80       	ldd	r15, Z+5	; 0x05
    66bc:	06 81       	ldd	r16, Z+6	; 0x06
    66be:	17 81       	ldd	r17, Z+7	; 0x07
    66c0:	d1 80       	ldd	r13, Z+1	; 0x01
    66c2:	80 81       	ld	r24, Z
    66c4:	82 30       	cpi	r24, 0x02	; 2
    66c6:	48 f4       	brcc	.+18     	; 0x66da <__pack_f+0x2e>
    66c8:	80 e0       	ldi	r24, 0x00	; 0
    66ca:	90 e0       	ldi	r25, 0x00	; 0
    66cc:	a0 e1       	ldi	r26, 0x10	; 16
    66ce:	b0 e0       	ldi	r27, 0x00	; 0
    66d0:	e8 2a       	or	r14, r24
    66d2:	f9 2a       	or	r15, r25
    66d4:	0a 2b       	or	r16, r26
    66d6:	1b 2b       	or	r17, r27
    66d8:	a5 c0       	rjmp	.+330    	; 0x6824 <__pack_f+0x178>
    66da:	84 30       	cpi	r24, 0x04	; 4
    66dc:	09 f4       	brne	.+2      	; 0x66e0 <__pack_f+0x34>
    66de:	9f c0       	rjmp	.+318    	; 0x681e <__pack_f+0x172>
    66e0:	82 30       	cpi	r24, 0x02	; 2
    66e2:	21 f4       	brne	.+8      	; 0x66ec <__pack_f+0x40>
    66e4:	ee 24       	eor	r14, r14
    66e6:	ff 24       	eor	r15, r15
    66e8:	87 01       	movw	r16, r14
    66ea:	05 c0       	rjmp	.+10     	; 0x66f6 <__pack_f+0x4a>
    66ec:	e1 14       	cp	r14, r1
    66ee:	f1 04       	cpc	r15, r1
    66f0:	01 05       	cpc	r16, r1
    66f2:	11 05       	cpc	r17, r1
    66f4:	19 f4       	brne	.+6      	; 0x66fc <__pack_f+0x50>
    66f6:	e0 e0       	ldi	r30, 0x00	; 0
    66f8:	f0 e0       	ldi	r31, 0x00	; 0
    66fa:	96 c0       	rjmp	.+300    	; 0x6828 <__pack_f+0x17c>
    66fc:	62 81       	ldd	r22, Z+2	; 0x02
    66fe:	73 81       	ldd	r23, Z+3	; 0x03
    6700:	9f ef       	ldi	r25, 0xFF	; 255
    6702:	62 38       	cpi	r22, 0x82	; 130
    6704:	79 07       	cpc	r23, r25
    6706:	0c f0       	brlt	.+2      	; 0x670a <__pack_f+0x5e>
    6708:	5b c0       	rjmp	.+182    	; 0x67c0 <__pack_f+0x114>
    670a:	22 e8       	ldi	r18, 0x82	; 130
    670c:	3f ef       	ldi	r19, 0xFF	; 255
    670e:	26 1b       	sub	r18, r22
    6710:	37 0b       	sbc	r19, r23
    6712:	2a 31       	cpi	r18, 0x1A	; 26
    6714:	31 05       	cpc	r19, r1
    6716:	2c f0       	brlt	.+10     	; 0x6722 <__pack_f+0x76>
    6718:	20 e0       	ldi	r18, 0x00	; 0
    671a:	30 e0       	ldi	r19, 0x00	; 0
    671c:	40 e0       	ldi	r20, 0x00	; 0
    671e:	50 e0       	ldi	r21, 0x00	; 0
    6720:	2a c0       	rjmp	.+84     	; 0x6776 <__pack_f+0xca>
    6722:	b8 01       	movw	r22, r16
    6724:	a7 01       	movw	r20, r14
    6726:	02 2e       	mov	r0, r18
    6728:	04 c0       	rjmp	.+8      	; 0x6732 <__pack_f+0x86>
    672a:	76 95       	lsr	r23
    672c:	67 95       	ror	r22
    672e:	57 95       	ror	r21
    6730:	47 95       	ror	r20
    6732:	0a 94       	dec	r0
    6734:	d2 f7       	brpl	.-12     	; 0x672a <__pack_f+0x7e>
    6736:	81 e0       	ldi	r24, 0x01	; 1
    6738:	90 e0       	ldi	r25, 0x00	; 0
    673a:	a0 e0       	ldi	r26, 0x00	; 0
    673c:	b0 e0       	ldi	r27, 0x00	; 0
    673e:	04 c0       	rjmp	.+8      	; 0x6748 <__pack_f+0x9c>
    6740:	88 0f       	add	r24, r24
    6742:	99 1f       	adc	r25, r25
    6744:	aa 1f       	adc	r26, r26
    6746:	bb 1f       	adc	r27, r27
    6748:	2a 95       	dec	r18
    674a:	d2 f7       	brpl	.-12     	; 0x6740 <__pack_f+0x94>
    674c:	01 97       	sbiw	r24, 0x01	; 1
    674e:	a1 09       	sbc	r26, r1
    6750:	b1 09       	sbc	r27, r1
    6752:	8e 21       	and	r24, r14
    6754:	9f 21       	and	r25, r15
    6756:	a0 23       	and	r26, r16
    6758:	b1 23       	and	r27, r17
    675a:	00 97       	sbiw	r24, 0x00	; 0
    675c:	a1 05       	cpc	r26, r1
    675e:	b1 05       	cpc	r27, r1
    6760:	21 f0       	breq	.+8      	; 0x676a <__pack_f+0xbe>
    6762:	81 e0       	ldi	r24, 0x01	; 1
    6764:	90 e0       	ldi	r25, 0x00	; 0
    6766:	a0 e0       	ldi	r26, 0x00	; 0
    6768:	b0 e0       	ldi	r27, 0x00	; 0
    676a:	9a 01       	movw	r18, r20
    676c:	ab 01       	movw	r20, r22
    676e:	28 2b       	or	r18, r24
    6770:	39 2b       	or	r19, r25
    6772:	4a 2b       	or	r20, r26
    6774:	5b 2b       	or	r21, r27
    6776:	da 01       	movw	r26, r20
    6778:	c9 01       	movw	r24, r18
    677a:	8f 77       	andi	r24, 0x7F	; 127
    677c:	90 70       	andi	r25, 0x00	; 0
    677e:	a0 70       	andi	r26, 0x00	; 0
    6780:	b0 70       	andi	r27, 0x00	; 0
    6782:	80 34       	cpi	r24, 0x40	; 64
    6784:	91 05       	cpc	r25, r1
    6786:	a1 05       	cpc	r26, r1
    6788:	b1 05       	cpc	r27, r1
    678a:	39 f4       	brne	.+14     	; 0x679a <__pack_f+0xee>
    678c:	27 ff       	sbrs	r18, 7
    678e:	09 c0       	rjmp	.+18     	; 0x67a2 <__pack_f+0xf6>
    6790:	20 5c       	subi	r18, 0xC0	; 192
    6792:	3f 4f       	sbci	r19, 0xFF	; 255
    6794:	4f 4f       	sbci	r20, 0xFF	; 255
    6796:	5f 4f       	sbci	r21, 0xFF	; 255
    6798:	04 c0       	rjmp	.+8      	; 0x67a2 <__pack_f+0xf6>
    679a:	21 5c       	subi	r18, 0xC1	; 193
    679c:	3f 4f       	sbci	r19, 0xFF	; 255
    679e:	4f 4f       	sbci	r20, 0xFF	; 255
    67a0:	5f 4f       	sbci	r21, 0xFF	; 255
    67a2:	e0 e0       	ldi	r30, 0x00	; 0
    67a4:	f0 e0       	ldi	r31, 0x00	; 0
    67a6:	20 30       	cpi	r18, 0x00	; 0
    67a8:	a0 e0       	ldi	r26, 0x00	; 0
    67aa:	3a 07       	cpc	r19, r26
    67ac:	a0 e0       	ldi	r26, 0x00	; 0
    67ae:	4a 07       	cpc	r20, r26
    67b0:	a0 e4       	ldi	r26, 0x40	; 64
    67b2:	5a 07       	cpc	r21, r26
    67b4:	10 f0       	brcs	.+4      	; 0x67ba <__pack_f+0x10e>
    67b6:	e1 e0       	ldi	r30, 0x01	; 1
    67b8:	f0 e0       	ldi	r31, 0x00	; 0
    67ba:	79 01       	movw	r14, r18
    67bc:	8a 01       	movw	r16, r20
    67be:	27 c0       	rjmp	.+78     	; 0x680e <__pack_f+0x162>
    67c0:	60 38       	cpi	r22, 0x80	; 128
    67c2:	71 05       	cpc	r23, r1
    67c4:	64 f5       	brge	.+88     	; 0x681e <__pack_f+0x172>
    67c6:	fb 01       	movw	r30, r22
    67c8:	e1 58       	subi	r30, 0x81	; 129
    67ca:	ff 4f       	sbci	r31, 0xFF	; 255
    67cc:	d8 01       	movw	r26, r16
    67ce:	c7 01       	movw	r24, r14
    67d0:	8f 77       	andi	r24, 0x7F	; 127
    67d2:	90 70       	andi	r25, 0x00	; 0
    67d4:	a0 70       	andi	r26, 0x00	; 0
    67d6:	b0 70       	andi	r27, 0x00	; 0
    67d8:	80 34       	cpi	r24, 0x40	; 64
    67da:	91 05       	cpc	r25, r1
    67dc:	a1 05       	cpc	r26, r1
    67de:	b1 05       	cpc	r27, r1
    67e0:	39 f4       	brne	.+14     	; 0x67f0 <__pack_f+0x144>
    67e2:	e7 fe       	sbrs	r14, 7
    67e4:	0d c0       	rjmp	.+26     	; 0x6800 <__pack_f+0x154>
    67e6:	80 e4       	ldi	r24, 0x40	; 64
    67e8:	90 e0       	ldi	r25, 0x00	; 0
    67ea:	a0 e0       	ldi	r26, 0x00	; 0
    67ec:	b0 e0       	ldi	r27, 0x00	; 0
    67ee:	04 c0       	rjmp	.+8      	; 0x67f8 <__pack_f+0x14c>
    67f0:	8f e3       	ldi	r24, 0x3F	; 63
    67f2:	90 e0       	ldi	r25, 0x00	; 0
    67f4:	a0 e0       	ldi	r26, 0x00	; 0
    67f6:	b0 e0       	ldi	r27, 0x00	; 0
    67f8:	e8 0e       	add	r14, r24
    67fa:	f9 1e       	adc	r15, r25
    67fc:	0a 1f       	adc	r16, r26
    67fe:	1b 1f       	adc	r17, r27
    6800:	17 ff       	sbrs	r17, 7
    6802:	05 c0       	rjmp	.+10     	; 0x680e <__pack_f+0x162>
    6804:	16 95       	lsr	r17
    6806:	07 95       	ror	r16
    6808:	f7 94       	ror	r15
    680a:	e7 94       	ror	r14
    680c:	31 96       	adiw	r30, 0x01	; 1
    680e:	87 e0       	ldi	r24, 0x07	; 7
    6810:	16 95       	lsr	r17
    6812:	07 95       	ror	r16
    6814:	f7 94       	ror	r15
    6816:	e7 94       	ror	r14
    6818:	8a 95       	dec	r24
    681a:	d1 f7       	brne	.-12     	; 0x6810 <__pack_f+0x164>
    681c:	05 c0       	rjmp	.+10     	; 0x6828 <__pack_f+0x17c>
    681e:	ee 24       	eor	r14, r14
    6820:	ff 24       	eor	r15, r15
    6822:	87 01       	movw	r16, r14
    6824:	ef ef       	ldi	r30, 0xFF	; 255
    6826:	f0 e0       	ldi	r31, 0x00	; 0
    6828:	6e 2f       	mov	r22, r30
    682a:	67 95       	ror	r22
    682c:	66 27       	eor	r22, r22
    682e:	67 95       	ror	r22
    6830:	90 2f       	mov	r25, r16
    6832:	9f 77       	andi	r25, 0x7F	; 127
    6834:	d7 94       	ror	r13
    6836:	dd 24       	eor	r13, r13
    6838:	d7 94       	ror	r13
    683a:	8e 2f       	mov	r24, r30
    683c:	86 95       	lsr	r24
    683e:	49 2f       	mov	r20, r25
    6840:	46 2b       	or	r20, r22
    6842:	58 2f       	mov	r21, r24
    6844:	5d 29       	or	r21, r13
    6846:	b7 01       	movw	r22, r14
    6848:	ca 01       	movw	r24, r20
    684a:	1f 91       	pop	r17
    684c:	0f 91       	pop	r16
    684e:	ff 90       	pop	r15
    6850:	ef 90       	pop	r14
    6852:	df 90       	pop	r13
    6854:	08 95       	ret

00006856 <__unpack_f>:
    6856:	fc 01       	movw	r30, r24
    6858:	db 01       	movw	r26, r22
    685a:	40 81       	ld	r20, Z
    685c:	51 81       	ldd	r21, Z+1	; 0x01
    685e:	22 81       	ldd	r18, Z+2	; 0x02
    6860:	62 2f       	mov	r22, r18
    6862:	6f 77       	andi	r22, 0x7F	; 127
    6864:	70 e0       	ldi	r23, 0x00	; 0
    6866:	22 1f       	adc	r18, r18
    6868:	22 27       	eor	r18, r18
    686a:	22 1f       	adc	r18, r18
    686c:	93 81       	ldd	r25, Z+3	; 0x03
    686e:	89 2f       	mov	r24, r25
    6870:	88 0f       	add	r24, r24
    6872:	82 2b       	or	r24, r18
    6874:	28 2f       	mov	r18, r24
    6876:	30 e0       	ldi	r19, 0x00	; 0
    6878:	99 1f       	adc	r25, r25
    687a:	99 27       	eor	r25, r25
    687c:	99 1f       	adc	r25, r25
    687e:	11 96       	adiw	r26, 0x01	; 1
    6880:	9c 93       	st	X, r25
    6882:	11 97       	sbiw	r26, 0x01	; 1
    6884:	21 15       	cp	r18, r1
    6886:	31 05       	cpc	r19, r1
    6888:	a9 f5       	brne	.+106    	; 0x68f4 <__unpack_f+0x9e>
    688a:	41 15       	cp	r20, r1
    688c:	51 05       	cpc	r21, r1
    688e:	61 05       	cpc	r22, r1
    6890:	71 05       	cpc	r23, r1
    6892:	11 f4       	brne	.+4      	; 0x6898 <__unpack_f+0x42>
    6894:	82 e0       	ldi	r24, 0x02	; 2
    6896:	37 c0       	rjmp	.+110    	; 0x6906 <__unpack_f+0xb0>
    6898:	82 e8       	ldi	r24, 0x82	; 130
    689a:	9f ef       	ldi	r25, 0xFF	; 255
    689c:	13 96       	adiw	r26, 0x03	; 3
    689e:	9c 93       	st	X, r25
    68a0:	8e 93       	st	-X, r24
    68a2:	12 97       	sbiw	r26, 0x02	; 2
    68a4:	9a 01       	movw	r18, r20
    68a6:	ab 01       	movw	r20, r22
    68a8:	67 e0       	ldi	r22, 0x07	; 7
    68aa:	22 0f       	add	r18, r18
    68ac:	33 1f       	adc	r19, r19
    68ae:	44 1f       	adc	r20, r20
    68b0:	55 1f       	adc	r21, r21
    68b2:	6a 95       	dec	r22
    68b4:	d1 f7       	brne	.-12     	; 0x68aa <__unpack_f+0x54>
    68b6:	83 e0       	ldi	r24, 0x03	; 3
    68b8:	8c 93       	st	X, r24
    68ba:	0d c0       	rjmp	.+26     	; 0x68d6 <__unpack_f+0x80>
    68bc:	22 0f       	add	r18, r18
    68be:	33 1f       	adc	r19, r19
    68c0:	44 1f       	adc	r20, r20
    68c2:	55 1f       	adc	r21, r21
    68c4:	12 96       	adiw	r26, 0x02	; 2
    68c6:	8d 91       	ld	r24, X+
    68c8:	9c 91       	ld	r25, X
    68ca:	13 97       	sbiw	r26, 0x03	; 3
    68cc:	01 97       	sbiw	r24, 0x01	; 1
    68ce:	13 96       	adiw	r26, 0x03	; 3
    68d0:	9c 93       	st	X, r25
    68d2:	8e 93       	st	-X, r24
    68d4:	12 97       	sbiw	r26, 0x02	; 2
    68d6:	20 30       	cpi	r18, 0x00	; 0
    68d8:	80 e0       	ldi	r24, 0x00	; 0
    68da:	38 07       	cpc	r19, r24
    68dc:	80 e0       	ldi	r24, 0x00	; 0
    68de:	48 07       	cpc	r20, r24
    68e0:	80 e4       	ldi	r24, 0x40	; 64
    68e2:	58 07       	cpc	r21, r24
    68e4:	58 f3       	brcs	.-42     	; 0x68bc <__unpack_f+0x66>
    68e6:	14 96       	adiw	r26, 0x04	; 4
    68e8:	2d 93       	st	X+, r18
    68ea:	3d 93       	st	X+, r19
    68ec:	4d 93       	st	X+, r20
    68ee:	5c 93       	st	X, r21
    68f0:	17 97       	sbiw	r26, 0x07	; 7
    68f2:	08 95       	ret
    68f4:	2f 3f       	cpi	r18, 0xFF	; 255
    68f6:	31 05       	cpc	r19, r1
    68f8:	79 f4       	brne	.+30     	; 0x6918 <__unpack_f+0xc2>
    68fa:	41 15       	cp	r20, r1
    68fc:	51 05       	cpc	r21, r1
    68fe:	61 05       	cpc	r22, r1
    6900:	71 05       	cpc	r23, r1
    6902:	19 f4       	brne	.+6      	; 0x690a <__unpack_f+0xb4>
    6904:	84 e0       	ldi	r24, 0x04	; 4
    6906:	8c 93       	st	X, r24
    6908:	08 95       	ret
    690a:	64 ff       	sbrs	r22, 4
    690c:	03 c0       	rjmp	.+6      	; 0x6914 <__unpack_f+0xbe>
    690e:	81 e0       	ldi	r24, 0x01	; 1
    6910:	8c 93       	st	X, r24
    6912:	12 c0       	rjmp	.+36     	; 0x6938 <__unpack_f+0xe2>
    6914:	1c 92       	st	X, r1
    6916:	10 c0       	rjmp	.+32     	; 0x6938 <__unpack_f+0xe2>
    6918:	2f 57       	subi	r18, 0x7F	; 127
    691a:	30 40       	sbci	r19, 0x00	; 0
    691c:	13 96       	adiw	r26, 0x03	; 3
    691e:	3c 93       	st	X, r19
    6920:	2e 93       	st	-X, r18
    6922:	12 97       	sbiw	r26, 0x02	; 2
    6924:	83 e0       	ldi	r24, 0x03	; 3
    6926:	8c 93       	st	X, r24
    6928:	87 e0       	ldi	r24, 0x07	; 7
    692a:	44 0f       	add	r20, r20
    692c:	55 1f       	adc	r21, r21
    692e:	66 1f       	adc	r22, r22
    6930:	77 1f       	adc	r23, r23
    6932:	8a 95       	dec	r24
    6934:	d1 f7       	brne	.-12     	; 0x692a <__unpack_f+0xd4>
    6936:	70 64       	ori	r23, 0x40	; 64
    6938:	14 96       	adiw	r26, 0x04	; 4
    693a:	4d 93       	st	X+, r20
    693c:	5d 93       	st	X+, r21
    693e:	6d 93       	st	X+, r22
    6940:	7c 93       	st	X, r23
    6942:	17 97       	sbiw	r26, 0x07	; 7
    6944:	08 95       	ret

00006946 <__fpcmp_parts_f>:
    6946:	1f 93       	push	r17
    6948:	dc 01       	movw	r26, r24
    694a:	fb 01       	movw	r30, r22
    694c:	9c 91       	ld	r25, X
    694e:	92 30       	cpi	r25, 0x02	; 2
    6950:	08 f4       	brcc	.+2      	; 0x6954 <__fpcmp_parts_f+0xe>
    6952:	47 c0       	rjmp	.+142    	; 0x69e2 <__fpcmp_parts_f+0x9c>
    6954:	80 81       	ld	r24, Z
    6956:	82 30       	cpi	r24, 0x02	; 2
    6958:	08 f4       	brcc	.+2      	; 0x695c <__fpcmp_parts_f+0x16>
    695a:	43 c0       	rjmp	.+134    	; 0x69e2 <__fpcmp_parts_f+0x9c>
    695c:	94 30       	cpi	r25, 0x04	; 4
    695e:	51 f4       	brne	.+20     	; 0x6974 <__fpcmp_parts_f+0x2e>
    6960:	11 96       	adiw	r26, 0x01	; 1
    6962:	1c 91       	ld	r17, X
    6964:	84 30       	cpi	r24, 0x04	; 4
    6966:	99 f5       	brne	.+102    	; 0x69ce <__fpcmp_parts_f+0x88>
    6968:	81 81       	ldd	r24, Z+1	; 0x01
    696a:	68 2f       	mov	r22, r24
    696c:	70 e0       	ldi	r23, 0x00	; 0
    696e:	61 1b       	sub	r22, r17
    6970:	71 09       	sbc	r23, r1
    6972:	3f c0       	rjmp	.+126    	; 0x69f2 <__fpcmp_parts_f+0xac>
    6974:	84 30       	cpi	r24, 0x04	; 4
    6976:	21 f0       	breq	.+8      	; 0x6980 <__fpcmp_parts_f+0x3a>
    6978:	92 30       	cpi	r25, 0x02	; 2
    697a:	31 f4       	brne	.+12     	; 0x6988 <__fpcmp_parts_f+0x42>
    697c:	82 30       	cpi	r24, 0x02	; 2
    697e:	b9 f1       	breq	.+110    	; 0x69ee <__fpcmp_parts_f+0xa8>
    6980:	81 81       	ldd	r24, Z+1	; 0x01
    6982:	88 23       	and	r24, r24
    6984:	89 f1       	breq	.+98     	; 0x69e8 <__fpcmp_parts_f+0xa2>
    6986:	2d c0       	rjmp	.+90     	; 0x69e2 <__fpcmp_parts_f+0x9c>
    6988:	11 96       	adiw	r26, 0x01	; 1
    698a:	1c 91       	ld	r17, X
    698c:	11 97       	sbiw	r26, 0x01	; 1
    698e:	82 30       	cpi	r24, 0x02	; 2
    6990:	f1 f0       	breq	.+60     	; 0x69ce <__fpcmp_parts_f+0x88>
    6992:	81 81       	ldd	r24, Z+1	; 0x01
    6994:	18 17       	cp	r17, r24
    6996:	d9 f4       	brne	.+54     	; 0x69ce <__fpcmp_parts_f+0x88>
    6998:	12 96       	adiw	r26, 0x02	; 2
    699a:	2d 91       	ld	r18, X+
    699c:	3c 91       	ld	r19, X
    699e:	13 97       	sbiw	r26, 0x03	; 3
    69a0:	82 81       	ldd	r24, Z+2	; 0x02
    69a2:	93 81       	ldd	r25, Z+3	; 0x03
    69a4:	82 17       	cp	r24, r18
    69a6:	93 07       	cpc	r25, r19
    69a8:	94 f0       	brlt	.+36     	; 0x69ce <__fpcmp_parts_f+0x88>
    69aa:	28 17       	cp	r18, r24
    69ac:	39 07       	cpc	r19, r25
    69ae:	bc f0       	brlt	.+46     	; 0x69de <__fpcmp_parts_f+0x98>
    69b0:	14 96       	adiw	r26, 0x04	; 4
    69b2:	8d 91       	ld	r24, X+
    69b4:	9d 91       	ld	r25, X+
    69b6:	0d 90       	ld	r0, X+
    69b8:	bc 91       	ld	r27, X
    69ba:	a0 2d       	mov	r26, r0
    69bc:	24 81       	ldd	r18, Z+4	; 0x04
    69be:	35 81       	ldd	r19, Z+5	; 0x05
    69c0:	46 81       	ldd	r20, Z+6	; 0x06
    69c2:	57 81       	ldd	r21, Z+7	; 0x07
    69c4:	28 17       	cp	r18, r24
    69c6:	39 07       	cpc	r19, r25
    69c8:	4a 07       	cpc	r20, r26
    69ca:	5b 07       	cpc	r21, r27
    69cc:	18 f4       	brcc	.+6      	; 0x69d4 <__fpcmp_parts_f+0x8e>
    69ce:	11 23       	and	r17, r17
    69d0:	41 f0       	breq	.+16     	; 0x69e2 <__fpcmp_parts_f+0x9c>
    69d2:	0a c0       	rjmp	.+20     	; 0x69e8 <__fpcmp_parts_f+0xa2>
    69d4:	82 17       	cp	r24, r18
    69d6:	93 07       	cpc	r25, r19
    69d8:	a4 07       	cpc	r26, r20
    69da:	b5 07       	cpc	r27, r21
    69dc:	40 f4       	brcc	.+16     	; 0x69ee <__fpcmp_parts_f+0xa8>
    69de:	11 23       	and	r17, r17
    69e0:	19 f0       	breq	.+6      	; 0x69e8 <__fpcmp_parts_f+0xa2>
    69e2:	61 e0       	ldi	r22, 0x01	; 1
    69e4:	70 e0       	ldi	r23, 0x00	; 0
    69e6:	05 c0       	rjmp	.+10     	; 0x69f2 <__fpcmp_parts_f+0xac>
    69e8:	6f ef       	ldi	r22, 0xFF	; 255
    69ea:	7f ef       	ldi	r23, 0xFF	; 255
    69ec:	02 c0       	rjmp	.+4      	; 0x69f2 <__fpcmp_parts_f+0xac>
    69ee:	60 e0       	ldi	r22, 0x00	; 0
    69f0:	70 e0       	ldi	r23, 0x00	; 0
    69f2:	cb 01       	movw	r24, r22
    69f4:	1f 91       	pop	r17
    69f6:	08 95       	ret

000069f8 <ADC_init>:
 */
#include"types.h"
#include"DIO.h"
#include"avr/io.h"
void ADC_init(void)
{
    69f8:	df 93       	push	r29
    69fa:	cf 93       	push	r28
    69fc:	cd b7       	in	r28, 0x3d	; 61
    69fe:	de b7       	in	r29, 0x3e	; 62
	SET_BIT(ADCSRA,7); //enable interrupt
    6a00:	a6 e2       	ldi	r26, 0x26	; 38
    6a02:	b0 e0       	ldi	r27, 0x00	; 0
    6a04:	e6 e2       	ldi	r30, 0x26	; 38
    6a06:	f0 e0       	ldi	r31, 0x00	; 0
    6a08:	80 81       	ld	r24, Z
    6a0a:	80 68       	ori	r24, 0x80	; 128
    6a0c:	8c 93       	st	X, r24
	SET_BIT(ADMUX,6); //vref
    6a0e:	a7 e2       	ldi	r26, 0x27	; 39
    6a10:	b0 e0       	ldi	r27, 0x00	; 0
    6a12:	e7 e2       	ldi	r30, 0x27	; 39
    6a14:	f0 e0       	ldi	r31, 0x00	; 0
    6a16:	80 81       	ld	r24, Z
    6a18:	80 64       	ori	r24, 0x40	; 64
    6a1a:	8c 93       	st	X, r24
	CLEAR_BIT(ADMUX,7); //vref
    6a1c:	a7 e2       	ldi	r26, 0x27	; 39
    6a1e:	b0 e0       	ldi	r27, 0x00	; 0
    6a20:	e7 e2       	ldi	r30, 0x27	; 39
    6a22:	f0 e0       	ldi	r31, 0x00	; 0
    6a24:	80 81       	ld	r24, Z
    6a26:	8f 77       	andi	r24, 0x7F	; 127
    6a28:	8c 93       	st	X, r24
	CLEAR_BIT(ADMUX,5); // right adjust
    6a2a:	a7 e2       	ldi	r26, 0x27	; 39
    6a2c:	b0 e0       	ldi	r27, 0x00	; 0
    6a2e:	e7 e2       	ldi	r30, 0x27	; 39
    6a30:	f0 e0       	ldi	r31, 0x00	; 0
    6a32:	80 81       	ld	r24, Z
    6a34:	8f 7d       	andi	r24, 0xDF	; 223
    6a36:	8c 93       	st	X, r24
	SET_BIT(ADCSRA,0); // pre scaler
    6a38:	a6 e2       	ldi	r26, 0x26	; 38
    6a3a:	b0 e0       	ldi	r27, 0x00	; 0
    6a3c:	e6 e2       	ldi	r30, 0x26	; 38
    6a3e:	f0 e0       	ldi	r31, 0x00	; 0
    6a40:	80 81       	ld	r24, Z
    6a42:	81 60       	ori	r24, 0x01	; 1
    6a44:	8c 93       	st	X, r24
	SET_BIT(ADCSRA,1); //pre scaler
    6a46:	a6 e2       	ldi	r26, 0x26	; 38
    6a48:	b0 e0       	ldi	r27, 0x00	; 0
    6a4a:	e6 e2       	ldi	r30, 0x26	; 38
    6a4c:	f0 e0       	ldi	r31, 0x00	; 0
    6a4e:	80 81       	ld	r24, Z
    6a50:	82 60       	ori	r24, 0x02	; 2
    6a52:	8c 93       	st	X, r24
	SET_BIT(ADCSRA,2); //pre scaler
    6a54:	a6 e2       	ldi	r26, 0x26	; 38
    6a56:	b0 e0       	ldi	r27, 0x00	; 0
    6a58:	e6 e2       	ldi	r30, 0x26	; 38
    6a5a:	f0 e0       	ldi	r31, 0x00	; 0
    6a5c:	80 81       	ld	r24, Z
    6a5e:	84 60       	ori	r24, 0x04	; 4
    6a60:	8c 93       	st	X, r24
}
    6a62:	cf 91       	pop	r28
    6a64:	df 91       	pop	r29
    6a66:	08 95       	ret

00006a68 <ADC_SelectMode>:

void ADC_SelectMode(u8 mode)
{
    6a68:	df 93       	push	r29
    6a6a:	cf 93       	push	r28
    6a6c:	0f 92       	push	r0
    6a6e:	cd b7       	in	r28, 0x3d	; 61
    6a70:	de b7       	in	r29, 0x3e	; 62
    6a72:	89 83       	std	Y+1, r24	; 0x01
	if(mode)
    6a74:	89 81       	ldd	r24, Y+1	; 0x01
    6a76:	88 23       	and	r24, r24
    6a78:	41 f0       	breq	.+16     	; 0x6a8a <ADC_SelectMode+0x22>
	{
		SET_BIT(ADCSRA,5);     //auto trigger mode
    6a7a:	a6 e2       	ldi	r26, 0x26	; 38
    6a7c:	b0 e0       	ldi	r27, 0x00	; 0
    6a7e:	e6 e2       	ldi	r30, 0x26	; 38
    6a80:	f0 e0       	ldi	r31, 0x00	; 0
    6a82:	80 81       	ld	r24, Z
    6a84:	80 62       	ori	r24, 0x20	; 32
    6a86:	8c 93       	st	X, r24
    6a88:	07 c0       	rjmp	.+14     	; 0x6a98 <ADC_SelectMode+0x30>
	}
	else
	{
		CLEAR_BIT(ADCSRA,5);  //single mode
    6a8a:	a6 e2       	ldi	r26, 0x26	; 38
    6a8c:	b0 e0       	ldi	r27, 0x00	; 0
    6a8e:	e6 e2       	ldi	r30, 0x26	; 38
    6a90:	f0 e0       	ldi	r31, 0x00	; 0
    6a92:	80 81       	ld	r24, Z
    6a94:	8f 7d       	andi	r24, 0xDF	; 223
    6a96:	8c 93       	st	X, r24
	}
}
    6a98:	0f 90       	pop	r0
    6a9a:	cf 91       	pop	r28
    6a9c:	df 91       	pop	r29
    6a9e:	08 95       	ret

00006aa0 <ADC_SelcetChannel>:

void ADC_SelcetChannel(u8 channel)
{
    6aa0:	df 93       	push	r29
    6aa2:	cf 93       	push	r28
    6aa4:	0f 92       	push	r0
    6aa6:	cd b7       	in	r28, 0x3d	; 61
    6aa8:	de b7       	in	r29, 0x3e	; 62
    6aaa:	89 83       	std	Y+1, r24	; 0x01

	if(channel==1)        //we change the 5 LSB
    6aac:	89 81       	ldd	r24, Y+1	; 0x01
    6aae:	81 30       	cpi	r24, 0x01	; 1
    6ab0:	41 f4       	brne	.+16     	; 0x6ac2 <ADC_SelcetChannel+0x22>
	{
		SET_BIT(ADMUX,0);
    6ab2:	a7 e2       	ldi	r26, 0x27	; 39
    6ab4:	b0 e0       	ldi	r27, 0x00	; 0
    6ab6:	e7 e2       	ldi	r30, 0x27	; 39
    6ab8:	f0 e0       	ldi	r31, 0x00	; 0
    6aba:	80 81       	ld	r24, Z
    6abc:	81 60       	ori	r24, 0x01	; 1
    6abe:	8c 93       	st	X, r24
    6ac0:	0a c0       	rjmp	.+20     	; 0x6ad6 <ADC_SelcetChannel+0x36>
	}
	else if(channel==0)
    6ac2:	89 81       	ldd	r24, Y+1	; 0x01
    6ac4:	88 23       	and	r24, r24
    6ac6:	39 f4       	brne	.+14     	; 0x6ad6 <ADC_SelcetChannel+0x36>
	{
		CLEAR_BIT(ADMUX,0);
    6ac8:	a7 e2       	ldi	r26, 0x27	; 39
    6aca:	b0 e0       	ldi	r27, 0x00	; 0
    6acc:	e7 e2       	ldi	r30, 0x27	; 39
    6ace:	f0 e0       	ldi	r31, 0x00	; 0
    6ad0:	80 81       	ld	r24, Z
    6ad2:	8e 7f       	andi	r24, 0xFE	; 254
    6ad4:	8c 93       	st	X, r24
	}
}
    6ad6:	0f 90       	pop	r0
    6ad8:	cf 91       	pop	r28
    6ada:	df 91       	pop	r29
    6adc:	08 95       	ret

00006ade <ADC_StartConversion>:


void ADC_StartConversion(void)
{
    6ade:	df 93       	push	r29
    6ae0:	cf 93       	push	r28
    6ae2:	cd b7       	in	r28, 0x3d	; 61
    6ae4:	de b7       	in	r29, 0x3e	; 62
	SET_BIT(ADCSRA,6); // start conversion
    6ae6:	a6 e2       	ldi	r26, 0x26	; 38
    6ae8:	b0 e0       	ldi	r27, 0x00	; 0
    6aea:	e6 e2       	ldi	r30, 0x26	; 38
    6aec:	f0 e0       	ldi	r31, 0x00	; 0
    6aee:	80 81       	ld	r24, Z
    6af0:	80 64       	ori	r24, 0x40	; 64
    6af2:	8c 93       	st	X, r24
}
    6af4:	cf 91       	pop	r28
    6af6:	df 91       	pop	r29
    6af8:	08 95       	ret

00006afa <ADC_ReadData>:

u16 ADC_ReadData(void)
{
    6afa:	df 93       	push	r29
    6afc:	cf 93       	push	r28
    6afe:	0f 92       	push	r0
    6b00:	cd b7       	in	r28, 0x3d	; 61
    6b02:	de b7       	in	r29, 0x3e	; 62
	u8 low;
	while( !GET_BIT(ADCSRA,4) );  //Check flag
    6b04:	e6 e2       	ldi	r30, 0x26	; 38
    6b06:	f0 e0       	ldi	r31, 0x00	; 0
    6b08:	80 81       	ld	r24, Z
    6b0a:	88 2f       	mov	r24, r24
    6b0c:	90 e0       	ldi	r25, 0x00	; 0
    6b0e:	80 71       	andi	r24, 0x10	; 16
    6b10:	90 70       	andi	r25, 0x00	; 0
    6b12:	95 95       	asr	r25
    6b14:	87 95       	ror	r24
    6b16:	95 95       	asr	r25
    6b18:	87 95       	ror	r24
    6b1a:	95 95       	asr	r25
    6b1c:	87 95       	ror	r24
    6b1e:	95 95       	asr	r25
    6b20:	87 95       	ror	r24
    6b22:	00 97       	sbiw	r24, 0x00	; 0
    6b24:	79 f3       	breq	.-34     	; 0x6b04 <ADC_ReadData+0xa>
	SET_BIT(ADCSRA,4);  //clear flag
    6b26:	a6 e2       	ldi	r26, 0x26	; 38
    6b28:	b0 e0       	ldi	r27, 0x00	; 0
    6b2a:	e6 e2       	ldi	r30, 0x26	; 38
    6b2c:	f0 e0       	ldi	r31, 0x00	; 0
    6b2e:	80 81       	ld	r24, Z
    6b30:	80 61       	ori	r24, 0x10	; 16
    6b32:	8c 93       	st	X, r24
	low=ADCL;
    6b34:	e4 e2       	ldi	r30, 0x24	; 36
    6b36:	f0 e0       	ldi	r31, 0x00	; 0
    6b38:	80 81       	ld	r24, Z
    6b3a:	89 83       	std	Y+1, r24	; 0x01
	return ( (ADCH<<8)|low );
    6b3c:	e5 e2       	ldi	r30, 0x25	; 37
    6b3e:	f0 e0       	ldi	r31, 0x00	; 0
    6b40:	80 81       	ld	r24, Z
    6b42:	88 2f       	mov	r24, r24
    6b44:	90 e0       	ldi	r25, 0x00	; 0
    6b46:	38 2f       	mov	r19, r24
    6b48:	22 27       	eor	r18, r18
    6b4a:	89 81       	ldd	r24, Y+1	; 0x01
    6b4c:	88 2f       	mov	r24, r24
    6b4e:	90 e0       	ldi	r25, 0x00	; 0
    6b50:	82 2b       	or	r24, r18
    6b52:	93 2b       	or	r25, r19
}
    6b54:	0f 90       	pop	r0
    6b56:	cf 91       	pop	r28
    6b58:	df 91       	pop	r29
    6b5a:	08 95       	ret

00006b5c <ADC_EnableIntrrupt>:

void ADC_EnableIntrrupt(void)
{
    6b5c:	df 93       	push	r29
    6b5e:	cf 93       	push	r28
    6b60:	cd b7       	in	r28, 0x3d	; 61
    6b62:	de b7       	in	r29, 0x3e	; 62
	SET_BIT(ADCSRA,3); //enable interrupt
    6b64:	a6 e2       	ldi	r26, 0x26	; 38
    6b66:	b0 e0       	ldi	r27, 0x00	; 0
    6b68:	e6 e2       	ldi	r30, 0x26	; 38
    6b6a:	f0 e0       	ldi	r31, 0x00	; 0
    6b6c:	80 81       	ld	r24, Z
    6b6e:	88 60       	ori	r24, 0x08	; 8
    6b70:	8c 93       	st	X, r24
}
    6b72:	cf 91       	pop	r28
    6b74:	df 91       	pop	r29
    6b76:	08 95       	ret

00006b78 <DrawLitters>:
#include"LCD_int.h"

extern volatile u8 qwe[8][8];

void DrawLitters( )
{
    6b78:	df 93       	push	r29
    6b7a:	cf 93       	push	r28
    6b7c:	00 d0       	rcall	.+0      	; 0x6b7e <DrawLitters+0x6>
    6b7e:	cd b7       	in	r28, 0x3d	; 61
    6b80:	de b7       	in	r29, 0x3e	; 62

	u8 i,j;


Lcd_voidWriteCmd(0b01000000);      // from ddram to cgram
    6b82:	80 e4       	ldi	r24, 0x40	; 64
    6b84:	0e 94 60 3a 	call	0x74c0	; 0x74c0 <Lcd_voidWriteCmd>
/******************************************************************************/

for(i=0;i<8;i++)
    6b88:	1a 82       	std	Y+2, r1	; 0x02
    6b8a:	20 c0       	rjmp	.+64     	; 0x6bcc <DrawLitters+0x54>
{
	for(j=0;j<8;j++)
    6b8c:	19 82       	std	Y+1, r1	; 0x01
    6b8e:	18 c0       	rjmp	.+48     	; 0x6bc0 <DrawLitters+0x48>
	{
    Lcd_voidWriteData( qwe[i][j] );
    6b90:	8a 81       	ldd	r24, Y+2	; 0x02
    6b92:	48 2f       	mov	r20, r24
    6b94:	50 e0       	ldi	r21, 0x00	; 0
    6b96:	89 81       	ldd	r24, Y+1	; 0x01
    6b98:	28 2f       	mov	r18, r24
    6b9a:	30 e0       	ldi	r19, 0x00	; 0
    6b9c:	ca 01       	movw	r24, r20
    6b9e:	88 0f       	add	r24, r24
    6ba0:	99 1f       	adc	r25, r25
    6ba2:	88 0f       	add	r24, r24
    6ba4:	99 1f       	adc	r25, r25
    6ba6:	88 0f       	add	r24, r24
    6ba8:	99 1f       	adc	r25, r25
    6baa:	82 0f       	add	r24, r18
    6bac:	93 1f       	adc	r25, r19
    6bae:	fc 01       	movw	r30, r24
    6bb0:	e4 56       	subi	r30, 0x64	; 100
    6bb2:	ff 4f       	sbci	r31, 0xFF	; 255
    6bb4:	80 81       	ld	r24, Z
    6bb6:	0e 94 50 39 	call	0x72a0	; 0x72a0 <Lcd_voidWriteData>
Lcd_voidWriteCmd(0b01000000);      // from ddram to cgram
/******************************************************************************/

for(i=0;i<8;i++)
{
	for(j=0;j<8;j++)
    6bba:	89 81       	ldd	r24, Y+1	; 0x01
    6bbc:	8f 5f       	subi	r24, 0xFF	; 255
    6bbe:	89 83       	std	Y+1, r24	; 0x01
    6bc0:	89 81       	ldd	r24, Y+1	; 0x01
    6bc2:	88 30       	cpi	r24, 0x08	; 8
    6bc4:	28 f3       	brcs	.-54     	; 0x6b90 <DrawLitters+0x18>


Lcd_voidWriteCmd(0b01000000);      // from ddram to cgram
/******************************************************************************/

for(i=0;i<8;i++)
    6bc6:	8a 81       	ldd	r24, Y+2	; 0x02
    6bc8:	8f 5f       	subi	r24, 0xFF	; 255
    6bca:	8a 83       	std	Y+2, r24	; 0x02
    6bcc:	8a 81       	ldd	r24, Y+2	; 0x02
    6bce:	88 30       	cpi	r24, 0x08	; 8
    6bd0:	e8 f2       	brcs	.-70     	; 0x6b8c <DrawLitters+0x14>
    Lcd_voidWriteData( qwe[i][j] );
	}
}

/**********************************************************************************/
  Lcd_voidWriteCmd(0b10000100);          //from cgram to ddram the same as "move the cursor by moving in ddram"
    6bd2:	84 e8       	ldi	r24, 0x84	; 132
    6bd4:	0e 94 60 3a 	call	0x74c0	; 0x74c0 <Lcd_voidWriteCmd>


}
    6bd8:	0f 90       	pop	r0
    6bda:	0f 90       	pop	r0
    6bdc:	cf 91       	pop	r28
    6bde:	df 91       	pop	r29
    6be0:	08 95       	ret

00006be2 <SetPinDirection>:

volatile u8* arr[4]= {&PORTA,&PORTB,&PORTC,&PORTD};


void SetPinDirection(u8 PortNumber , u8 PinNumber , u8 Direction)
{
    6be2:	df 93       	push	r29
    6be4:	cf 93       	push	r28
    6be6:	00 d0       	rcall	.+0      	; 0x6be8 <SetPinDirection+0x6>
    6be8:	0f 92       	push	r0
    6bea:	cd b7       	in	r28, 0x3d	; 61
    6bec:	de b7       	in	r29, 0x3e	; 62
    6bee:	89 83       	std	Y+1, r24	; 0x01
    6bf0:	6a 83       	std	Y+2, r22	; 0x02
    6bf2:	4b 83       	std	Y+3, r20	; 0x03

	if(Direction)
    6bf4:	8b 81       	ldd	r24, Y+3	; 0x03
    6bf6:	88 23       	and	r24, r24
    6bf8:	41 f1       	breq	.+80     	; 0x6c4a <SetPinDirection+0x68>
			SET_BIT( *(arr[PortNumber]-1) , PinNumber );
    6bfa:	89 81       	ldd	r24, Y+1	; 0x01
    6bfc:	88 2f       	mov	r24, r24
    6bfe:	90 e0       	ldi	r25, 0x00	; 0
    6c00:	88 0f       	add	r24, r24
    6c02:	99 1f       	adc	r25, r25
    6c04:	fc 01       	movw	r30, r24
    6c06:	ea 58       	subi	r30, 0x8A	; 138
    6c08:	ff 4f       	sbci	r31, 0xFF	; 255
    6c0a:	80 81       	ld	r24, Z
    6c0c:	91 81       	ldd	r25, Z+1	; 0x01
    6c0e:	dc 01       	movw	r26, r24
    6c10:	11 97       	sbiw	r26, 0x01	; 1
    6c12:	89 81       	ldd	r24, Y+1	; 0x01
    6c14:	88 2f       	mov	r24, r24
    6c16:	90 e0       	ldi	r25, 0x00	; 0
    6c18:	88 0f       	add	r24, r24
    6c1a:	99 1f       	adc	r25, r25
    6c1c:	fc 01       	movw	r30, r24
    6c1e:	ea 58       	subi	r30, 0x8A	; 138
    6c20:	ff 4f       	sbci	r31, 0xFF	; 255
    6c22:	80 81       	ld	r24, Z
    6c24:	91 81       	ldd	r25, Z+1	; 0x01
    6c26:	fc 01       	movw	r30, r24
    6c28:	31 97       	sbiw	r30, 0x01	; 1
    6c2a:	80 81       	ld	r24, Z
    6c2c:	48 2f       	mov	r20, r24
    6c2e:	8a 81       	ldd	r24, Y+2	; 0x02
    6c30:	28 2f       	mov	r18, r24
    6c32:	30 e0       	ldi	r19, 0x00	; 0
    6c34:	81 e0       	ldi	r24, 0x01	; 1
    6c36:	90 e0       	ldi	r25, 0x00	; 0
    6c38:	02 2e       	mov	r0, r18
    6c3a:	02 c0       	rjmp	.+4      	; 0x6c40 <SetPinDirection+0x5e>
    6c3c:	88 0f       	add	r24, r24
    6c3e:	99 1f       	adc	r25, r25
    6c40:	0a 94       	dec	r0
    6c42:	e2 f7       	brpl	.-8      	; 0x6c3c <SetPinDirection+0x5a>
    6c44:	84 2b       	or	r24, r20
    6c46:	8c 93       	st	X, r24
    6c48:	28 c0       	rjmp	.+80     	; 0x6c9a <SetPinDirection+0xb8>
		else
			CLEAR_BIT( *(arr[PortNumber]-1) , PinNumber );
    6c4a:	89 81       	ldd	r24, Y+1	; 0x01
    6c4c:	88 2f       	mov	r24, r24
    6c4e:	90 e0       	ldi	r25, 0x00	; 0
    6c50:	88 0f       	add	r24, r24
    6c52:	99 1f       	adc	r25, r25
    6c54:	fc 01       	movw	r30, r24
    6c56:	ea 58       	subi	r30, 0x8A	; 138
    6c58:	ff 4f       	sbci	r31, 0xFF	; 255
    6c5a:	80 81       	ld	r24, Z
    6c5c:	91 81       	ldd	r25, Z+1	; 0x01
    6c5e:	dc 01       	movw	r26, r24
    6c60:	11 97       	sbiw	r26, 0x01	; 1
    6c62:	89 81       	ldd	r24, Y+1	; 0x01
    6c64:	88 2f       	mov	r24, r24
    6c66:	90 e0       	ldi	r25, 0x00	; 0
    6c68:	88 0f       	add	r24, r24
    6c6a:	99 1f       	adc	r25, r25
    6c6c:	fc 01       	movw	r30, r24
    6c6e:	ea 58       	subi	r30, 0x8A	; 138
    6c70:	ff 4f       	sbci	r31, 0xFF	; 255
    6c72:	80 81       	ld	r24, Z
    6c74:	91 81       	ldd	r25, Z+1	; 0x01
    6c76:	fc 01       	movw	r30, r24
    6c78:	31 97       	sbiw	r30, 0x01	; 1
    6c7a:	80 81       	ld	r24, Z
    6c7c:	48 2f       	mov	r20, r24
    6c7e:	8a 81       	ldd	r24, Y+2	; 0x02
    6c80:	28 2f       	mov	r18, r24
    6c82:	30 e0       	ldi	r19, 0x00	; 0
    6c84:	81 e0       	ldi	r24, 0x01	; 1
    6c86:	90 e0       	ldi	r25, 0x00	; 0
    6c88:	02 2e       	mov	r0, r18
    6c8a:	02 c0       	rjmp	.+4      	; 0x6c90 <SetPinDirection+0xae>
    6c8c:	88 0f       	add	r24, r24
    6c8e:	99 1f       	adc	r25, r25
    6c90:	0a 94       	dec	r0
    6c92:	e2 f7       	brpl	.-8      	; 0x6c8c <SetPinDirection+0xaa>
    6c94:	80 95       	com	r24
    6c96:	84 23       	and	r24, r20
    6c98:	8c 93       	st	X, r24
}
    6c9a:	0f 90       	pop	r0
    6c9c:	0f 90       	pop	r0
    6c9e:	0f 90       	pop	r0
    6ca0:	cf 91       	pop	r28
    6ca2:	df 91       	pop	r29
    6ca4:	08 95       	ret

00006ca6 <GetPinValue>:


u8 GetPinValue(u8 PortNumber , u8 PinNumber)
{
    6ca6:	df 93       	push	r29
    6ca8:	cf 93       	push	r28
    6caa:	00 d0       	rcall	.+0      	; 0x6cac <GetPinValue+0x6>
    6cac:	0f 92       	push	r0
    6cae:	cd b7       	in	r28, 0x3d	; 61
    6cb0:	de b7       	in	r29, 0x3e	; 62
    6cb2:	8a 83       	std	Y+2, r24	; 0x02
    6cb4:	6b 83       	std	Y+3, r22	; 0x03
	u8 re=0;
    6cb6:	19 82       	std	Y+1, r1	; 0x01

	re= GET_BIT( *(arr[PortNumber]-2) , PinNumber );
    6cb8:	8a 81       	ldd	r24, Y+2	; 0x02
    6cba:	88 2f       	mov	r24, r24
    6cbc:	90 e0       	ldi	r25, 0x00	; 0
    6cbe:	88 0f       	add	r24, r24
    6cc0:	99 1f       	adc	r25, r25
    6cc2:	fc 01       	movw	r30, r24
    6cc4:	ea 58       	subi	r30, 0x8A	; 138
    6cc6:	ff 4f       	sbci	r31, 0xFF	; 255
    6cc8:	80 81       	ld	r24, Z
    6cca:	91 81       	ldd	r25, Z+1	; 0x01
    6ccc:	fc 01       	movw	r30, r24
    6cce:	32 97       	sbiw	r30, 0x02	; 2
    6cd0:	80 81       	ld	r24, Z
    6cd2:	48 2f       	mov	r20, r24
    6cd4:	50 e0       	ldi	r21, 0x00	; 0
    6cd6:	8b 81       	ldd	r24, Y+3	; 0x03
    6cd8:	28 2f       	mov	r18, r24
    6cda:	30 e0       	ldi	r19, 0x00	; 0
    6cdc:	81 e0       	ldi	r24, 0x01	; 1
    6cde:	90 e0       	ldi	r25, 0x00	; 0
    6ce0:	02 c0       	rjmp	.+4      	; 0x6ce6 <GetPinValue+0x40>
    6ce2:	88 0f       	add	r24, r24
    6ce4:	99 1f       	adc	r25, r25
    6ce6:	2a 95       	dec	r18
    6ce8:	e2 f7       	brpl	.-8      	; 0x6ce2 <GetPinValue+0x3c>
    6cea:	9a 01       	movw	r18, r20
    6cec:	28 23       	and	r18, r24
    6cee:	39 23       	and	r19, r25
    6cf0:	8b 81       	ldd	r24, Y+3	; 0x03
    6cf2:	88 2f       	mov	r24, r24
    6cf4:	90 e0       	ldi	r25, 0x00	; 0
    6cf6:	a9 01       	movw	r20, r18
    6cf8:	02 c0       	rjmp	.+4      	; 0x6cfe <GetPinValue+0x58>
    6cfa:	55 95       	asr	r21
    6cfc:	47 95       	ror	r20
    6cfe:	8a 95       	dec	r24
    6d00:	e2 f7       	brpl	.-8      	; 0x6cfa <GetPinValue+0x54>
    6d02:	ca 01       	movw	r24, r20
    6d04:	89 83       	std	Y+1, r24	; 0x01
	return re;
    6d06:	89 81       	ldd	r24, Y+1	; 0x01
}
    6d08:	0f 90       	pop	r0
    6d0a:	0f 90       	pop	r0
    6d0c:	0f 90       	pop	r0
    6d0e:	cf 91       	pop	r28
    6d10:	df 91       	pop	r29
    6d12:	08 95       	ret

00006d14 <SetPinValue>:

void SetPinValue(u8 PortNumber , u8 PinNumber , u8 Value)
{
    6d14:	df 93       	push	r29
    6d16:	cf 93       	push	r28
    6d18:	00 d0       	rcall	.+0      	; 0x6d1a <SetPinValue+0x6>
    6d1a:	0f 92       	push	r0
    6d1c:	cd b7       	in	r28, 0x3d	; 61
    6d1e:	de b7       	in	r29, 0x3e	; 62
    6d20:	89 83       	std	Y+1, r24	; 0x01
    6d22:	6a 83       	std	Y+2, r22	; 0x02
    6d24:	4b 83       	std	Y+3, r20	; 0x03

   if(Value)
    6d26:	8b 81       	ldd	r24, Y+3	; 0x03
    6d28:	88 23       	and	r24, r24
    6d2a:	29 f1       	breq	.+74     	; 0x6d76 <SetPinValue+0x62>
 	 SET_BIT(*arr[PortNumber],PinNumber);
    6d2c:	89 81       	ldd	r24, Y+1	; 0x01
    6d2e:	88 2f       	mov	r24, r24
    6d30:	90 e0       	ldi	r25, 0x00	; 0
    6d32:	88 0f       	add	r24, r24
    6d34:	99 1f       	adc	r25, r25
    6d36:	fc 01       	movw	r30, r24
    6d38:	ea 58       	subi	r30, 0x8A	; 138
    6d3a:	ff 4f       	sbci	r31, 0xFF	; 255
    6d3c:	a0 81       	ld	r26, Z
    6d3e:	b1 81       	ldd	r27, Z+1	; 0x01
    6d40:	89 81       	ldd	r24, Y+1	; 0x01
    6d42:	88 2f       	mov	r24, r24
    6d44:	90 e0       	ldi	r25, 0x00	; 0
    6d46:	88 0f       	add	r24, r24
    6d48:	99 1f       	adc	r25, r25
    6d4a:	fc 01       	movw	r30, r24
    6d4c:	ea 58       	subi	r30, 0x8A	; 138
    6d4e:	ff 4f       	sbci	r31, 0xFF	; 255
    6d50:	01 90       	ld	r0, Z+
    6d52:	f0 81       	ld	r31, Z
    6d54:	e0 2d       	mov	r30, r0
    6d56:	80 81       	ld	r24, Z
    6d58:	48 2f       	mov	r20, r24
    6d5a:	8a 81       	ldd	r24, Y+2	; 0x02
    6d5c:	28 2f       	mov	r18, r24
    6d5e:	30 e0       	ldi	r19, 0x00	; 0
    6d60:	81 e0       	ldi	r24, 0x01	; 1
    6d62:	90 e0       	ldi	r25, 0x00	; 0
    6d64:	02 2e       	mov	r0, r18
    6d66:	02 c0       	rjmp	.+4      	; 0x6d6c <SetPinValue+0x58>
    6d68:	88 0f       	add	r24, r24
    6d6a:	99 1f       	adc	r25, r25
    6d6c:	0a 94       	dec	r0
    6d6e:	e2 f7       	brpl	.-8      	; 0x6d68 <SetPinValue+0x54>
    6d70:	84 2b       	or	r24, r20
    6d72:	8c 93       	st	X, r24
    6d74:	25 c0       	rjmp	.+74     	; 0x6dc0 <SetPinValue+0xac>
   else
	 CLEAR_BIT(*arr[PortNumber],PinNumber);
    6d76:	89 81       	ldd	r24, Y+1	; 0x01
    6d78:	88 2f       	mov	r24, r24
    6d7a:	90 e0       	ldi	r25, 0x00	; 0
    6d7c:	88 0f       	add	r24, r24
    6d7e:	99 1f       	adc	r25, r25
    6d80:	fc 01       	movw	r30, r24
    6d82:	ea 58       	subi	r30, 0x8A	; 138
    6d84:	ff 4f       	sbci	r31, 0xFF	; 255
    6d86:	a0 81       	ld	r26, Z
    6d88:	b1 81       	ldd	r27, Z+1	; 0x01
    6d8a:	89 81       	ldd	r24, Y+1	; 0x01
    6d8c:	88 2f       	mov	r24, r24
    6d8e:	90 e0       	ldi	r25, 0x00	; 0
    6d90:	88 0f       	add	r24, r24
    6d92:	99 1f       	adc	r25, r25
    6d94:	fc 01       	movw	r30, r24
    6d96:	ea 58       	subi	r30, 0x8A	; 138
    6d98:	ff 4f       	sbci	r31, 0xFF	; 255
    6d9a:	01 90       	ld	r0, Z+
    6d9c:	f0 81       	ld	r31, Z
    6d9e:	e0 2d       	mov	r30, r0
    6da0:	80 81       	ld	r24, Z
    6da2:	48 2f       	mov	r20, r24
    6da4:	8a 81       	ldd	r24, Y+2	; 0x02
    6da6:	28 2f       	mov	r18, r24
    6da8:	30 e0       	ldi	r19, 0x00	; 0
    6daa:	81 e0       	ldi	r24, 0x01	; 1
    6dac:	90 e0       	ldi	r25, 0x00	; 0
    6dae:	02 2e       	mov	r0, r18
    6db0:	02 c0       	rjmp	.+4      	; 0x6db6 <SetPinValue+0xa2>
    6db2:	88 0f       	add	r24, r24
    6db4:	99 1f       	adc	r25, r25
    6db6:	0a 94       	dec	r0
    6db8:	e2 f7       	brpl	.-8      	; 0x6db2 <SetPinValue+0x9e>
    6dba:	80 95       	com	r24
    6dbc:	84 23       	and	r24, r20
    6dbe:	8c 93       	st	X, r24
}
    6dc0:	0f 90       	pop	r0
    6dc2:	0f 90       	pop	r0
    6dc4:	0f 90       	pop	r0
    6dc6:	cf 91       	pop	r28
    6dc8:	df 91       	pop	r29
    6dca:	08 95       	ret

00006dcc <SetPin>:

void SetPin( u8 PinNumber , u8 Value )                       // fun take the pin number from 0 to 31
{
    6dcc:	df 93       	push	r29
    6dce:	cf 93       	push	r28
    6dd0:	00 d0       	rcall	.+0      	; 0x6dd2 <SetPin+0x6>
    6dd2:	cd b7       	in	r28, 0x3d	; 61
    6dd4:	de b7       	in	r29, 0x3e	; 62
    6dd6:	89 83       	std	Y+1, r24	; 0x01
    6dd8:	6a 83       	std	Y+2, r22	; 0x02
  if(Value)
    6dda:	8a 81       	ldd	r24, Y+2	; 0x02
    6ddc:	88 23       	and	r24, r24
    6dde:	71 f1       	breq	.+92     	; 0x6e3c <SetPin+0x70>
  {
	  SET_BIT( *arr[PinNumber/8] , (PinNumber%8) );
    6de0:	89 81       	ldd	r24, Y+1	; 0x01
    6de2:	86 95       	lsr	r24
    6de4:	86 95       	lsr	r24
    6de6:	86 95       	lsr	r24
    6de8:	88 2f       	mov	r24, r24
    6dea:	90 e0       	ldi	r25, 0x00	; 0
    6dec:	88 0f       	add	r24, r24
    6dee:	99 1f       	adc	r25, r25
    6df0:	fc 01       	movw	r30, r24
    6df2:	ea 58       	subi	r30, 0x8A	; 138
    6df4:	ff 4f       	sbci	r31, 0xFF	; 255
    6df6:	a0 81       	ld	r26, Z
    6df8:	b1 81       	ldd	r27, Z+1	; 0x01
    6dfa:	89 81       	ldd	r24, Y+1	; 0x01
    6dfc:	86 95       	lsr	r24
    6dfe:	86 95       	lsr	r24
    6e00:	86 95       	lsr	r24
    6e02:	88 2f       	mov	r24, r24
    6e04:	90 e0       	ldi	r25, 0x00	; 0
    6e06:	88 0f       	add	r24, r24
    6e08:	99 1f       	adc	r25, r25
    6e0a:	fc 01       	movw	r30, r24
    6e0c:	ea 58       	subi	r30, 0x8A	; 138
    6e0e:	ff 4f       	sbci	r31, 0xFF	; 255
    6e10:	01 90       	ld	r0, Z+
    6e12:	f0 81       	ld	r31, Z
    6e14:	e0 2d       	mov	r30, r0
    6e16:	80 81       	ld	r24, Z
    6e18:	48 2f       	mov	r20, r24
    6e1a:	89 81       	ldd	r24, Y+1	; 0x01
    6e1c:	88 2f       	mov	r24, r24
    6e1e:	90 e0       	ldi	r25, 0x00	; 0
    6e20:	9c 01       	movw	r18, r24
    6e22:	27 70       	andi	r18, 0x07	; 7
    6e24:	30 70       	andi	r19, 0x00	; 0
    6e26:	81 e0       	ldi	r24, 0x01	; 1
    6e28:	90 e0       	ldi	r25, 0x00	; 0
    6e2a:	02 2e       	mov	r0, r18
    6e2c:	02 c0       	rjmp	.+4      	; 0x6e32 <SetPin+0x66>
    6e2e:	88 0f       	add	r24, r24
    6e30:	99 1f       	adc	r25, r25
    6e32:	0a 94       	dec	r0
    6e34:	e2 f7       	brpl	.-8      	; 0x6e2e <SetPin+0x62>
    6e36:	84 2b       	or	r24, r20
    6e38:	8c 93       	st	X, r24
    6e3a:	2e c0       	rjmp	.+92     	; 0x6e98 <SetPin+0xcc>
  }
  else
  {
	  CLEAR_BIT( *arr[PinNumber/8] , (PinNumber%8) );
    6e3c:	89 81       	ldd	r24, Y+1	; 0x01
    6e3e:	86 95       	lsr	r24
    6e40:	86 95       	lsr	r24
    6e42:	86 95       	lsr	r24
    6e44:	88 2f       	mov	r24, r24
    6e46:	90 e0       	ldi	r25, 0x00	; 0
    6e48:	88 0f       	add	r24, r24
    6e4a:	99 1f       	adc	r25, r25
    6e4c:	fc 01       	movw	r30, r24
    6e4e:	ea 58       	subi	r30, 0x8A	; 138
    6e50:	ff 4f       	sbci	r31, 0xFF	; 255
    6e52:	a0 81       	ld	r26, Z
    6e54:	b1 81       	ldd	r27, Z+1	; 0x01
    6e56:	89 81       	ldd	r24, Y+1	; 0x01
    6e58:	86 95       	lsr	r24
    6e5a:	86 95       	lsr	r24
    6e5c:	86 95       	lsr	r24
    6e5e:	88 2f       	mov	r24, r24
    6e60:	90 e0       	ldi	r25, 0x00	; 0
    6e62:	88 0f       	add	r24, r24
    6e64:	99 1f       	adc	r25, r25
    6e66:	fc 01       	movw	r30, r24
    6e68:	ea 58       	subi	r30, 0x8A	; 138
    6e6a:	ff 4f       	sbci	r31, 0xFF	; 255
    6e6c:	01 90       	ld	r0, Z+
    6e6e:	f0 81       	ld	r31, Z
    6e70:	e0 2d       	mov	r30, r0
    6e72:	80 81       	ld	r24, Z
    6e74:	48 2f       	mov	r20, r24
    6e76:	89 81       	ldd	r24, Y+1	; 0x01
    6e78:	88 2f       	mov	r24, r24
    6e7a:	90 e0       	ldi	r25, 0x00	; 0
    6e7c:	9c 01       	movw	r18, r24
    6e7e:	27 70       	andi	r18, 0x07	; 7
    6e80:	30 70       	andi	r19, 0x00	; 0
    6e82:	81 e0       	ldi	r24, 0x01	; 1
    6e84:	90 e0       	ldi	r25, 0x00	; 0
    6e86:	02 2e       	mov	r0, r18
    6e88:	02 c0       	rjmp	.+4      	; 0x6e8e <SetPin+0xc2>
    6e8a:	88 0f       	add	r24, r24
    6e8c:	99 1f       	adc	r25, r25
    6e8e:	0a 94       	dec	r0
    6e90:	e2 f7       	brpl	.-8      	; 0x6e8a <SetPin+0xbe>
    6e92:	80 95       	com	r24
    6e94:	84 23       	and	r24, r20
    6e96:	8c 93       	st	X, r24
  }


}
    6e98:	0f 90       	pop	r0
    6e9a:	0f 90       	pop	r0
    6e9c:	cf 91       	pop	r28
    6e9e:	df 91       	pop	r29
    6ea0:	08 95       	ret

00006ea2 <SetPortDirection>:

void SetPortDirection(u8 PortNumber , u8 Direction)
{
    6ea2:	df 93       	push	r29
    6ea4:	cf 93       	push	r28
    6ea6:	00 d0       	rcall	.+0      	; 0x6ea8 <SetPortDirection+0x6>
    6ea8:	cd b7       	in	r28, 0x3d	; 61
    6eaa:	de b7       	in	r29, 0x3e	; 62
    6eac:	89 83       	std	Y+1, r24	; 0x01
    6eae:	6a 83       	std	Y+2, r22	; 0x02
	*(arr[PortNumber]-1) = Direction;
    6eb0:	89 81       	ldd	r24, Y+1	; 0x01
    6eb2:	88 2f       	mov	r24, r24
    6eb4:	90 e0       	ldi	r25, 0x00	; 0
    6eb6:	88 0f       	add	r24, r24
    6eb8:	99 1f       	adc	r25, r25
    6eba:	fc 01       	movw	r30, r24
    6ebc:	ea 58       	subi	r30, 0x8A	; 138
    6ebe:	ff 4f       	sbci	r31, 0xFF	; 255
    6ec0:	80 81       	ld	r24, Z
    6ec2:	91 81       	ldd	r25, Z+1	; 0x01
    6ec4:	fc 01       	movw	r30, r24
    6ec6:	31 97       	sbiw	r30, 0x01	; 1
    6ec8:	8a 81       	ldd	r24, Y+2	; 0x02
    6eca:	80 83       	st	Z, r24
}
    6ecc:	0f 90       	pop	r0
    6ece:	0f 90       	pop	r0
    6ed0:	cf 91       	pop	r28
    6ed2:	df 91       	pop	r29
    6ed4:	08 95       	ret

00006ed6 <SetPortValue>:

void SetPortValue(u8 PortNumber , u8 Value)
{
    6ed6:	df 93       	push	r29
    6ed8:	cf 93       	push	r28
    6eda:	00 d0       	rcall	.+0      	; 0x6edc <SetPortValue+0x6>
    6edc:	cd b7       	in	r28, 0x3d	; 61
    6ede:	de b7       	in	r29, 0x3e	; 62
    6ee0:	89 83       	std	Y+1, r24	; 0x01
    6ee2:	6a 83       	std	Y+2, r22	; 0x02
	*arr[PortNumber] = Value;
    6ee4:	89 81       	ldd	r24, Y+1	; 0x01
    6ee6:	88 2f       	mov	r24, r24
    6ee8:	90 e0       	ldi	r25, 0x00	; 0
    6eea:	88 0f       	add	r24, r24
    6eec:	99 1f       	adc	r25, r25
    6eee:	fc 01       	movw	r30, r24
    6ef0:	ea 58       	subi	r30, 0x8A	; 138
    6ef2:	ff 4f       	sbci	r31, 0xFF	; 255
    6ef4:	01 90       	ld	r0, Z+
    6ef6:	f0 81       	ld	r31, Z
    6ef8:	e0 2d       	mov	r30, r0
    6efa:	8a 81       	ldd	r24, Y+2	; 0x02
    6efc:	80 83       	st	Z, r24
}
    6efe:	0f 90       	pop	r0
    6f00:	0f 90       	pop	r0
    6f02:	cf 91       	pop	r28
    6f04:	df 91       	pop	r29
    6f06:	08 95       	ret

00006f08 <GetPortValue>:
u8 GetPortValue(u8 PortNumber)
{
    6f08:	df 93       	push	r29
    6f0a:	cf 93       	push	r28
    6f0c:	00 d0       	rcall	.+0      	; 0x6f0e <GetPortValue+0x6>
    6f0e:	cd b7       	in	r28, 0x3d	; 61
    6f10:	de b7       	in	r29, 0x3e	; 62
    6f12:	8a 83       	std	Y+2, r24	; 0x02
	u8 re=0;
    6f14:	19 82       	std	Y+1, r1	; 0x01
	re=*(arr[PortNumber]-2);        // -2 because  pin reg = port reg - 2
    6f16:	8a 81       	ldd	r24, Y+2	; 0x02
    6f18:	88 2f       	mov	r24, r24
    6f1a:	90 e0       	ldi	r25, 0x00	; 0
    6f1c:	88 0f       	add	r24, r24
    6f1e:	99 1f       	adc	r25, r25
    6f20:	fc 01       	movw	r30, r24
    6f22:	ea 58       	subi	r30, 0x8A	; 138
    6f24:	ff 4f       	sbci	r31, 0xFF	; 255
    6f26:	80 81       	ld	r24, Z
    6f28:	91 81       	ldd	r25, Z+1	; 0x01
    6f2a:	fc 01       	movw	r30, r24
    6f2c:	32 97       	sbiw	r30, 0x02	; 2
    6f2e:	80 81       	ld	r24, Z
    6f30:	89 83       	std	Y+1, r24	; 0x01
	return re;
    6f32:	89 81       	ldd	r24, Y+1	; 0x01
}
    6f34:	0f 90       	pop	r0
    6f36:	0f 90       	pop	r0
    6f38:	cf 91       	pop	r28
    6f3a:	df 91       	pop	r29
    6f3c:	08 95       	ret

00006f3e <EEPROM_InsertData>:
#include<avr/eeprom.h>

extern volatile u8 qwe[8][8];

void EEPROM_InsertData(void)
{
    6f3e:	df 93       	push	r29
    6f40:	cf 93       	push	r28
    6f42:	cd b7       	in	r28, 0x3d	; 61
    6f44:	de b7       	in	r29, 0x3e	; 62
    6f46:	c0 5c       	subi	r28, 0xC0	; 192
    6f48:	d0 40       	sbci	r29, 0x00	; 0
    6f4a:	0f b6       	in	r0, 0x3f	; 63
    6f4c:	f8 94       	cli
    6f4e:	de bf       	out	0x3e, r29	; 62
    6f50:	0f be       	out	0x3f, r0	; 63
    6f52:	cd bf       	out	0x3d, r28	; 61
	,{0b00001110,0b00001110,0b00000100,0b00000100,0b00000100,0b00000100,0b00000100,0b00000000}
	,{0}
	,{0}
	,{0}
	,{0}
};
    6f54:	80 ec       	ldi	r24, 0xC0	; 192
    6f56:	fe 01       	movw	r30, r28
    6f58:	31 96       	adiw	r30, 0x01	; 1
    6f5a:	df 01       	movw	r26, r30
    6f5c:	98 2f       	mov	r25, r24
    6f5e:	1d 92       	st	X+, r1
    6f60:	9a 95       	dec	r25
    6f62:	e9 f7       	brne	.-6      	; 0x6f5e <EEPROM_InsertData+0x20>
    6f64:	82 e0       	ldi	r24, 0x02	; 2
    6f66:	8c 83       	std	Y+4, r24	; 0x04
    6f68:	82 e0       	ldi	r24, 0x02	; 2
    6f6a:	8d 83       	std	Y+5, r24	; 0x05
    6f6c:	8e e1       	ldi	r24, 0x1E	; 30
    6f6e:	8e 83       	std	Y+6, r24	; 0x06
    6f70:	84 e0       	ldi	r24, 0x04	; 4
    6f72:	88 87       	std	Y+8, r24	; 0x08
    6f74:	85 e1       	ldi	r24, 0x15	; 21
    6f76:	8c 87       	std	Y+12, r24	; 0x0c
    6f78:	85 e1       	ldi	r24, 0x15	; 21
    6f7a:	8d 87       	std	Y+13, r24	; 0x0d
    6f7c:	8f e1       	ldi	r24, 0x1F	; 31
    6f7e:	8e 87       	std	Y+14, r24	; 0x0e
    6f80:	8f e1       	ldi	r24, 0x1F	; 31
    6f82:	8e 8b       	std	Y+22, r24	; 0x16
    6f84:	85 e1       	ldi	r24, 0x15	; 21
    6f86:	8f 8b       	std	Y+23, r24	; 0x17
    6f88:	87 e1       	ldi	r24, 0x17	; 23
    6f8a:	88 8f       	std	Y+24, r24	; 0x18
    6f8c:	84 e0       	ldi	r24, 0x04	; 4
    6f8e:	89 8f       	std	Y+25, r24	; 0x19
    6f90:	84 e0       	ldi	r24, 0x04	; 4
    6f92:	8a 8f       	std	Y+26, r24	; 0x1a
    6f94:	84 e0       	ldi	r24, 0x04	; 4
    6f96:	8b 8f       	std	Y+27, r24	; 0x1b
    6f98:	84 e0       	ldi	r24, 0x04	; 4
    6f9a:	8c 8f       	std	Y+28, r24	; 0x1c
    6f9c:	84 e0       	ldi	r24, 0x04	; 4
    6f9e:	8d 8f       	std	Y+29, r24	; 0x1d
    6fa0:	84 e0       	ldi	r24, 0x04	; 4
    6fa2:	8e 8f       	std	Y+30, r24	; 0x1e
    6fa4:	84 e0       	ldi	r24, 0x04	; 4
    6fa6:	8f 8f       	std	Y+31, r24	; 0x1f
    6fa8:	81 e0       	ldi	r24, 0x01	; 1
    6faa:	89 a3       	std	Y+33, r24	; 0x21
    6fac:	81 e0       	ldi	r24, 0x01	; 1
    6fae:	8a a3       	std	Y+34, r24	; 0x22
    6fb0:	81 e0       	ldi	r24, 0x01	; 1
    6fb2:	8b a3       	std	Y+35, r24	; 0x23
    6fb4:	81 e0       	ldi	r24, 0x01	; 1
    6fb6:	8c a3       	std	Y+36, r24	; 0x24
    6fb8:	81 e0       	ldi	r24, 0x01	; 1
    6fba:	8d a3       	std	Y+37, r24	; 0x25
    6fbc:	81 e0       	ldi	r24, 0x01	; 1
    6fbe:	8e a3       	std	Y+38, r24	; 0x26
    6fc0:	8f e1       	ldi	r24, 0x1F	; 31
    6fc2:	8f a3       	std	Y+39, r24	; 0x27
    6fc4:	81 e0       	ldi	r24, 0x01	; 1
    6fc6:	89 a7       	std	Y+41, r24	; 0x29
    6fc8:	81 e0       	ldi	r24, 0x01	; 1
    6fca:	8a a7       	std	Y+42, r24	; 0x2a
    6fcc:	81 e0       	ldi	r24, 0x01	; 1
    6fce:	8b a7       	std	Y+43, r24	; 0x2b
    6fd0:	81 e0       	ldi	r24, 0x01	; 1
    6fd2:	8c a7       	std	Y+44, r24	; 0x2c
    6fd4:	81 e0       	ldi	r24, 0x01	; 1
    6fd6:	8d a7       	std	Y+45, r24	; 0x2d
    6fd8:	81 e0       	ldi	r24, 0x01	; 1
    6fda:	8e a7       	std	Y+46, r24	; 0x2e
    6fdc:	8f e1       	ldi	r24, 0x1F	; 31
    6fde:	8f a7       	std	Y+47, r24	; 0x2f
    6fe0:	8f e0       	ldi	r24, 0x0F	; 15
    6fe2:	89 ab       	std	Y+49, r24	; 0x31
    6fe4:	89 e0       	ldi	r24, 0x09	; 9
    6fe6:	8a ab       	std	Y+50, r24	; 0x32
    6fe8:	8f e0       	ldi	r24, 0x0F	; 15
    6fea:	8b ab       	std	Y+51, r24	; 0x33
    6fec:	81 e0       	ldi	r24, 0x01	; 1
    6fee:	8c ab       	std	Y+52, r24	; 0x34
    6ff0:	81 e0       	ldi	r24, 0x01	; 1
    6ff2:	8d ab       	std	Y+53, r24	; 0x35
    6ff4:	81 e0       	ldi	r24, 0x01	; 1
    6ff6:	8e ab       	std	Y+54, r24	; 0x36
    6ff8:	81 e0       	ldi	r24, 0x01	; 1
    6ffa:	8f ab       	std	Y+55, r24	; 0x37
    6ffc:	fe 01       	movw	r30, r28
    6ffe:	ef 5b       	subi	r30, 0xBF	; 191
    7000:	ff 4f       	sbci	r31, 0xFF	; 255
    7002:	86 e0       	ldi	r24, 0x06	; 6
    7004:	80 83       	st	Z, r24
    7006:	fe 01       	movw	r30, r28
    7008:	ee 5b       	subi	r30, 0xBE	; 190
    700a:	ff 4f       	sbci	r31, 0xFF	; 255
    700c:	84 e0       	ldi	r24, 0x04	; 4
    700e:	80 83       	st	Z, r24
    7010:	fe 01       	movw	r30, r28
    7012:	ed 5b       	subi	r30, 0xBD	; 189
    7014:	ff 4f       	sbci	r31, 0xFF	; 255
    7016:	8f e0       	ldi	r24, 0x0F	; 15
    7018:	80 83       	st	Z, r24
    701a:	fe 01       	movw	r30, r28
    701c:	ec 5b       	subi	r30, 0xBC	; 188
    701e:	ff 4f       	sbci	r31, 0xFF	; 255
    7020:	82 e0       	ldi	r24, 0x02	; 2
    7022:	80 83       	st	Z, r24
    7024:	fe 01       	movw	r30, r28
    7026:	eb 5b       	subi	r30, 0xBB	; 187
    7028:	ff 4f       	sbci	r31, 0xFF	; 255
    702a:	82 e0       	ldi	r24, 0x02	; 2
    702c:	80 83       	st	Z, r24
    702e:	fe 01       	movw	r30, r28
    7030:	ea 5b       	subi	r30, 0xBA	; 186
    7032:	ff 4f       	sbci	r31, 0xFF	; 255
    7034:	82 e0       	ldi	r24, 0x02	; 2
    7036:	80 83       	st	Z, r24
    7038:	fe 01       	movw	r30, r28
    703a:	e9 5b       	subi	r30, 0xB9	; 185
    703c:	ff 4f       	sbci	r31, 0xFF	; 255
    703e:	82 e0       	ldi	r24, 0x02	; 2
    7040:	80 83       	st	Z, r24
    7042:	fe 01       	movw	r30, r28
    7044:	e8 5b       	subi	r30, 0xB8	; 184
    7046:	ff 4f       	sbci	r31, 0xFF	; 255
    7048:	82 e0       	ldi	r24, 0x02	; 2
    704a:	80 83       	st	Z, r24
    704c:	fe 01       	movw	r30, r28
    704e:	e5 5b       	subi	r30, 0xB5	; 181
    7050:	ff 4f       	sbci	r31, 0xFF	; 255
    7052:	8c e1       	ldi	r24, 0x1C	; 28
    7054:	80 83       	st	Z, r24
    7056:	fe 01       	movw	r30, r28
    7058:	e4 5b       	subi	r30, 0xB4	; 180
    705a:	ff 4f       	sbci	r31, 0xFF	; 255
    705c:	82 e0       	ldi	r24, 0x02	; 2
    705e:	80 83       	st	Z, r24
    7060:	fe 01       	movw	r30, r28
    7062:	e3 5b       	subi	r30, 0xB3	; 179
    7064:	ff 4f       	sbci	r31, 0xFF	; 255
    7066:	8f e1       	ldi	r24, 0x1F	; 31
    7068:	80 83       	st	Z, r24
    706a:	fe 01       	movw	r30, r28
    706c:	eb 5a       	subi	r30, 0xAB	; 171
    706e:	ff 4f       	sbci	r31, 0xFF	; 255
    7070:	8f e1       	ldi	r24, 0x1F	; 31
    7072:	80 83       	st	Z, r24
    7074:	fe 01       	movw	r30, r28
    7076:	ea 5a       	subi	r30, 0xAA	; 170
    7078:	ff 4f       	sbci	r31, 0xFF	; 255
    707a:	8a e0       	ldi	r24, 0x0A	; 10
    707c:	80 83       	st	Z, r24
    707e:	fe 01       	movw	r30, r28
    7080:	e9 5a       	subi	r30, 0xA9	; 169
    7082:	ff 4f       	sbci	r31, 0xFF	; 255
    7084:	8e e0       	ldi	r24, 0x0E	; 14
    7086:	80 83       	st	Z, r24
    7088:	fe 01       	movw	r30, r28
    708a:	e5 5a       	subi	r30, 0xA5	; 165
    708c:	ff 4f       	sbci	r31, 0xFF	; 255
    708e:	82 e0       	ldi	r24, 0x02	; 2
    7090:	80 83       	st	Z, r24
    7092:	fe 01       	movw	r30, r28
    7094:	e4 5a       	subi	r30, 0xA4	; 164
    7096:	ff 4f       	sbci	r31, 0xFF	; 255
    7098:	82 e0       	ldi	r24, 0x02	; 2
    709a:	80 83       	st	Z, r24
    709c:	fe 01       	movw	r30, r28
    709e:	e3 5a       	subi	r30, 0xA3	; 163
    70a0:	ff 4f       	sbci	r31, 0xFF	; 255
    70a2:	8f e0       	ldi	r24, 0x0F	; 15
    70a4:	80 83       	st	Z, r24
    70a6:	fe 01       	movw	r30, r28
    70a8:	ef 59       	subi	r30, 0x9F	; 159
    70aa:	ff 4f       	sbci	r31, 0xFF	; 255
    70ac:	8b e1       	ldi	r24, 0x1B	; 27
    70ae:	80 83       	st	Z, r24
    70b0:	fe 01       	movw	r30, r28
    70b2:	ee 59       	subi	r30, 0x9E	; 158
    70b4:	ff 4f       	sbci	r31, 0xFF	; 255
    70b6:	85 e1       	ldi	r24, 0x15	; 21
    70b8:	80 83       	st	Z, r24
    70ba:	fe 01       	movw	r30, r28
    70bc:	ed 59       	subi	r30, 0x9D	; 157
    70be:	ff 4f       	sbci	r31, 0xFF	; 255
    70c0:	81 e1       	ldi	r24, 0x11	; 17
    70c2:	80 83       	st	Z, r24
    70c4:	fe 01       	movw	r30, r28
    70c6:	ec 59       	subi	r30, 0x9C	; 156
    70c8:	ff 4f       	sbci	r31, 0xFF	; 255
    70ca:	81 e1       	ldi	r24, 0x11	; 17
    70cc:	80 83       	st	Z, r24
    70ce:	fe 01       	movw	r30, r28
    70d0:	eb 59       	subi	r30, 0x9B	; 155
    70d2:	ff 4f       	sbci	r31, 0xFF	; 255
    70d4:	8a e0       	ldi	r24, 0x0A	; 10
    70d6:	80 83       	st	Z, r24
    70d8:	fe 01       	movw	r30, r28
    70da:	ea 59       	subi	r30, 0x9A	; 154
    70dc:	ff 4f       	sbci	r31, 0xFF	; 255
    70de:	84 e0       	ldi	r24, 0x04	; 4
    70e0:	80 83       	st	Z, r24
    70e2:	fe 01       	movw	r30, r28
    70e4:	ef 57       	subi	r30, 0x7F	; 127
    70e6:	ff 4f       	sbci	r31, 0xFF	; 255
    70e8:	84 e0       	ldi	r24, 0x04	; 4
    70ea:	80 83       	st	Z, r24
    70ec:	fe 01       	movw	r30, r28
    70ee:	ee 57       	subi	r30, 0x7E	; 126
    70f0:	ff 4f       	sbci	r31, 0xFF	; 255
    70f2:	8a e0       	ldi	r24, 0x0A	; 10
    70f4:	80 83       	st	Z, r24
    70f6:	fe 01       	movw	r30, r28
    70f8:	ec 57       	subi	r30, 0x7C	; 124
    70fa:	ff 4f       	sbci	r31, 0xFF	; 255
    70fc:	85 e1       	ldi	r24, 0x15	; 21
    70fe:	80 83       	st	Z, r24
    7100:	fe 01       	movw	r30, r28
    7102:	eb 57       	subi	r30, 0x7B	; 123
    7104:	ff 4f       	sbci	r31, 0xFF	; 255
    7106:	85 e1       	ldi	r24, 0x15	; 21
    7108:	80 83       	st	Z, r24
    710a:	fe 01       	movw	r30, r28
    710c:	ea 57       	subi	r30, 0x7A	; 122
    710e:	ff 4f       	sbci	r31, 0xFF	; 255
    7110:	8f e1       	ldi	r24, 0x1F	; 31
    7112:	80 83       	st	Z, r24
    7114:	fe 01       	movw	r30, r28
    7116:	e7 57       	subi	r30, 0x77	; 119
    7118:	ff 4f       	sbci	r31, 0xFF	; 255
    711a:	8f e0       	ldi	r24, 0x0F	; 15
    711c:	80 83       	st	Z, r24
    711e:	fe 01       	movw	r30, r28
    7120:	e6 57       	subi	r30, 0x76	; 118
    7122:	ff 4f       	sbci	r31, 0xFF	; 255
    7124:	88 e0       	ldi	r24, 0x08	; 8
    7126:	80 83       	st	Z, r24
    7128:	fe 01       	movw	r30, r28
    712a:	e5 57       	subi	r30, 0x75	; 117
    712c:	ff 4f       	sbci	r31, 0xFF	; 255
    712e:	88 e0       	ldi	r24, 0x08	; 8
    7130:	80 83       	st	Z, r24
    7132:	fe 01       	movw	r30, r28
    7134:	e4 57       	subi	r30, 0x74	; 116
    7136:	ff 4f       	sbci	r31, 0xFF	; 255
    7138:	88 e0       	ldi	r24, 0x08	; 8
    713a:	80 83       	st	Z, r24
    713c:	fe 01       	movw	r30, r28
    713e:	e3 57       	subi	r30, 0x73	; 115
    7140:	ff 4f       	sbci	r31, 0xFF	; 255
    7142:	88 e0       	ldi	r24, 0x08	; 8
    7144:	80 83       	st	Z, r24
    7146:	fe 01       	movw	r30, r28
    7148:	e2 57       	subi	r30, 0x72	; 114
    714a:	ff 4f       	sbci	r31, 0xFF	; 255
    714c:	8f e1       	ldi	r24, 0x1F	; 31
    714e:	80 83       	st	Z, r24
    7150:	fe 01       	movw	r30, r28
    7152:	eb 56       	subi	r30, 0x6B	; 107
    7154:	ff 4f       	sbci	r31, 0xFF	; 255
    7156:	81 e0       	ldi	r24, 0x01	; 1
    7158:	80 83       	st	Z, r24
    715a:	fe 01       	movw	r30, r28
    715c:	ea 56       	subi	r30, 0x6A	; 106
    715e:	ff 4f       	sbci	r31, 0xFF	; 255
    7160:	83 e0       	ldi	r24, 0x03	; 3
    7162:	80 83       	st	Z, r24
    7164:	fe 01       	movw	r30, r28
    7166:	e9 56       	subi	r30, 0x69	; 105
    7168:	ff 4f       	sbci	r31, 0xFF	; 255
    716a:	8c e0       	ldi	r24, 0x0C	; 12
    716c:	80 83       	st	Z, r24
    716e:	fe 01       	movw	r30, r28
    7170:	e8 56       	subi	r30, 0x68	; 104
    7172:	ff 4f       	sbci	r31, 0xFF	; 255
    7174:	80 e3       	ldi	r24, 0x30	; 48
    7176:	80 83       	st	Z, r24
    7178:	fe 01       	movw	r30, r28
    717a:	e7 56       	subi	r30, 0x67	; 103
    717c:	ff 4f       	sbci	r31, 0xFF	; 255
    717e:	8e e0       	ldi	r24, 0x0E	; 14
    7180:	80 83       	st	Z, r24
    7182:	fe 01       	movw	r30, r28
    7184:	e6 56       	subi	r30, 0x66	; 102
    7186:	ff 4f       	sbci	r31, 0xFF	; 255
    7188:	8e e0       	ldi	r24, 0x0E	; 14
    718a:	80 83       	st	Z, r24
    718c:	fe 01       	movw	r30, r28
    718e:	e5 56       	subi	r30, 0x65	; 101
    7190:	ff 4f       	sbci	r31, 0xFF	; 255
    7192:	84 e0       	ldi	r24, 0x04	; 4
    7194:	80 83       	st	Z, r24
    7196:	fe 01       	movw	r30, r28
    7198:	e4 56       	subi	r30, 0x64	; 100
    719a:	ff 4f       	sbci	r31, 0xFF	; 255
    719c:	84 e0       	ldi	r24, 0x04	; 4
    719e:	80 83       	st	Z, r24
    71a0:	fe 01       	movw	r30, r28
    71a2:	e3 56       	subi	r30, 0x63	; 99
    71a4:	ff 4f       	sbci	r31, 0xFF	; 255
    71a6:	84 e0       	ldi	r24, 0x04	; 4
    71a8:	80 83       	st	Z, r24
    71aa:	fe 01       	movw	r30, r28
    71ac:	e2 56       	subi	r30, 0x62	; 98
    71ae:	ff 4f       	sbci	r31, 0xFF	; 255
    71b0:	84 e0       	ldi	r24, 0x04	; 4
    71b2:	80 83       	st	Z, r24
    71b4:	fe 01       	movw	r30, r28
    71b6:	e1 56       	subi	r30, 0x61	; 97
    71b8:	ff 4f       	sbci	r31, 0xFF	; 255
    71ba:	84 e0       	ldi	r24, 0x04	; 4
    71bc:	80 83       	st	Z, r24



		eeprom_write_block( (const void*) arr, (void *) 0 , 192);
    71be:	ce 01       	movw	r24, r28
    71c0:	01 96       	adiw	r24, 0x01	; 1
    71c2:	60 e0       	ldi	r22, 0x00	; 0
    71c4:	70 e0       	ldi	r23, 0x00	; 0
    71c6:	40 ec       	ldi	r20, 0xC0	; 192
    71c8:	50 e0       	ldi	r21, 0x00	; 0
    71ca:	0e 94 c3 3f 	call	0x7f86	; 0x7f86 <__eewr_block_m32>
}
    71ce:	c0 54       	subi	r28, 0x40	; 64
    71d0:	df 4f       	sbci	r29, 0xFF	; 255
    71d2:	0f b6       	in	r0, 0x3f	; 63
    71d4:	f8 94       	cli
    71d6:	de bf       	out	0x3e, r29	; 62
    71d8:	0f be       	out	0x3f, r0	; 63
    71da:	cd bf       	out	0x3d, r28	; 61
    71dc:	cf 91       	pop	r28
    71de:	df 91       	pop	r29
    71e0:	08 95       	ret

000071e2 <EEPROM_GetData>:

void EEPROM_GetData(u8 address)
{
    71e2:	df 93       	push	r29
    71e4:	cf 93       	push	r28
    71e6:	0f 92       	push	r0
    71e8:	cd b7       	in	r28, 0x3d	; 61
    71ea:	de b7       	in	r29, 0x3e	; 62
    71ec:	89 83       	std	Y+1, r24	; 0x01
	eeprom_read_block( (void*) qwe, (const void *) address , 64);
    71ee:	89 81       	ldd	r24, Y+1	; 0x01
    71f0:	88 2f       	mov	r24, r24
    71f2:	90 e0       	ldi	r25, 0x00	; 0
    71f4:	9c 01       	movw	r18, r24
    71f6:	8c e9       	ldi	r24, 0x9C	; 156
    71f8:	90 e0       	ldi	r25, 0x00	; 0
    71fa:	b9 01       	movw	r22, r18
    71fc:	40 e4       	ldi	r20, 0x40	; 64
    71fe:	50 e0       	ldi	r21, 0x00	; 0
    7200:	0e 94 b3 3f 	call	0x7f66	; 0x7f66 <__eerd_block_m32>
}
    7204:	0f 90       	pop	r0
    7206:	cf 91       	pop	r28
    7208:	df 91       	pop	r29
    720a:	08 95       	ret

0000720c <Lcd_voidWriteSentince>:
#include"DIO.h"
#include<util/delay.h>
#include"LCD_int.h"

void Lcd_voidWriteSentince( u8 *Argument_pu8Sentince )
{
    720c:	df 93       	push	r29
    720e:	cf 93       	push	r28
    7210:	00 d0       	rcall	.+0      	; 0x7212 <Lcd_voidWriteSentince+0x6>
    7212:	0f 92       	push	r0
    7214:	cd b7       	in	r28, 0x3d	; 61
    7216:	de b7       	in	r29, 0x3e	; 62
    7218:	9b 83       	std	Y+3, r25	; 0x03
    721a:	8a 83       	std	Y+2, r24	; 0x02
	u8 i=0;
    721c:	19 82       	std	Y+1, r1	; 0x01
    721e:	0e c0       	rjmp	.+28     	; 0x723c <Lcd_voidWriteSentince+0x30>
	while( i<8 )
	{
		Lcd_voidWriteData( Argument_pu8Sentince[i] );
    7220:	89 81       	ldd	r24, Y+1	; 0x01
    7222:	28 2f       	mov	r18, r24
    7224:	30 e0       	ldi	r19, 0x00	; 0
    7226:	8a 81       	ldd	r24, Y+2	; 0x02
    7228:	9b 81       	ldd	r25, Y+3	; 0x03
    722a:	fc 01       	movw	r30, r24
    722c:	e2 0f       	add	r30, r18
    722e:	f3 1f       	adc	r31, r19
    7230:	80 81       	ld	r24, Z
    7232:	0e 94 50 39 	call	0x72a0	; 0x72a0 <Lcd_voidWriteData>
		i++;
    7236:	89 81       	ldd	r24, Y+1	; 0x01
    7238:	8f 5f       	subi	r24, 0xFF	; 255
    723a:	89 83       	std	Y+1, r24	; 0x01
#include"LCD_int.h"

void Lcd_voidWriteSentince( u8 *Argument_pu8Sentince )
{
	u8 i=0;
	while( i<8 )
    723c:	89 81       	ldd	r24, Y+1	; 0x01
    723e:	88 30       	cpi	r24, 0x08	; 8
    7240:	78 f3       	brcs	.-34     	; 0x7220 <Lcd_voidWriteSentince+0x14>
	{
		Lcd_voidWriteData( Argument_pu8Sentince[i] );
		i++;
	}

}
    7242:	0f 90       	pop	r0
    7244:	0f 90       	pop	r0
    7246:	0f 90       	pop	r0
    7248:	cf 91       	pop	r28
    724a:	df 91       	pop	r29
    724c:	08 95       	ret

0000724e <Lcd_voidWriteSentinceAscii>:
void Lcd_voidWriteSentinceAscii(u8 * Argument_pi8sentince)
{
    724e:	df 93       	push	r29
    7250:	cf 93       	push	r28
    7252:	00 d0       	rcall	.+0      	; 0x7254 <Lcd_voidWriteSentinceAscii+0x6>
    7254:	0f 92       	push	r0
    7256:	cd b7       	in	r28, 0x3d	; 61
    7258:	de b7       	in	r29, 0x3e	; 62
    725a:	9b 83       	std	Y+3, r25	; 0x03
    725c:	8a 83       	std	Y+2, r24	; 0x02
	u8 i=0;
    725e:	19 82       	std	Y+1, r1	; 0x01
    7260:	0e c0       	rjmp	.+28     	; 0x727e <Lcd_voidWriteSentinceAscii+0x30>
//	Lcd_voidWriteCmd(0b00000001);
	while( Argument_pi8sentince[i]!='\0' )
	{
		Lcd_voidWriteData( Argument_pi8sentince[i] );
    7262:	89 81       	ldd	r24, Y+1	; 0x01
    7264:	28 2f       	mov	r18, r24
    7266:	30 e0       	ldi	r19, 0x00	; 0
    7268:	8a 81       	ldd	r24, Y+2	; 0x02
    726a:	9b 81       	ldd	r25, Y+3	; 0x03
    726c:	fc 01       	movw	r30, r24
    726e:	e2 0f       	add	r30, r18
    7270:	f3 1f       	adc	r31, r19
    7272:	80 81       	ld	r24, Z
    7274:	0e 94 50 39 	call	0x72a0	; 0x72a0 <Lcd_voidWriteData>
		i++;
    7278:	89 81       	ldd	r24, Y+1	; 0x01
    727a:	8f 5f       	subi	r24, 0xFF	; 255
    727c:	89 83       	std	Y+1, r24	; 0x01
}
void Lcd_voidWriteSentinceAscii(u8 * Argument_pi8sentince)
{
	u8 i=0;
//	Lcd_voidWriteCmd(0b00000001);
	while( Argument_pi8sentince[i]!='\0' )
    727e:	89 81       	ldd	r24, Y+1	; 0x01
    7280:	28 2f       	mov	r18, r24
    7282:	30 e0       	ldi	r19, 0x00	; 0
    7284:	8a 81       	ldd	r24, Y+2	; 0x02
    7286:	9b 81       	ldd	r25, Y+3	; 0x03
    7288:	fc 01       	movw	r30, r24
    728a:	e2 0f       	add	r30, r18
    728c:	f3 1f       	adc	r31, r19
    728e:	80 81       	ld	r24, Z
    7290:	88 23       	and	r24, r24
    7292:	39 f7       	brne	.-50     	; 0x7262 <Lcd_voidWriteSentinceAscii+0x14>
	{
		Lcd_voidWriteData( Argument_pi8sentince[i] );
		i++;
	}
}
    7294:	0f 90       	pop	r0
    7296:	0f 90       	pop	r0
    7298:	0f 90       	pop	r0
    729a:	cf 91       	pop	r28
    729c:	df 91       	pop	r29
    729e:	08 95       	ret

000072a0 <Lcd_voidWriteData>:

void Lcd_voidWriteData( u8 Argument_u8character )
{
    72a0:	df 93       	push	r29
    72a2:	cf 93       	push	r28
    72a4:	cd b7       	in	r28, 0x3d	; 61
    72a6:	de b7       	in	r29, 0x3e	; 62
    72a8:	6d 97       	sbiw	r28, 0x1d	; 29
    72aa:	0f b6       	in	r0, 0x3f	; 63
    72ac:	f8 94       	cli
    72ae:	de bf       	out	0x3e, r29	; 62
    72b0:	0f be       	out	0x3f, r0	; 63
    72b2:	cd bf       	out	0x3d, r28	; 61
    72b4:	8d 8f       	std	Y+29, r24	; 0x1d
//	_delay_ms(2);                    //for 1 ms
//	//SetPinValue(PORT_D,2,0);              //disable E
//	PORTD &= 0b11111011;
//	_delay_ms(2);                    //for 1 ms

	SetPinValue(PORT_B,0,1);               //RS choose data mode
    72b6:	81 e0       	ldi	r24, 0x01	; 1
    72b8:	60 e0       	ldi	r22, 0x00	; 0
    72ba:	41 e0       	ldi	r20, 0x01	; 1
    72bc:	0e 94 8a 36 	call	0x6d14	; 0x6d14 <SetPinValue>
	SetPinValue(PORT_B,1,0);               //R/W choose write mode
    72c0:	81 e0       	ldi	r24, 0x01	; 1
    72c2:	61 e0       	ldi	r22, 0x01	; 1
    72c4:	40 e0       	ldi	r20, 0x00	; 0
    72c6:	0e 94 8a 36 	call	0x6d14	; 0x6d14 <SetPinValue>
	SetPortValue(PORT_D , Argument_u8character);    //pass the data
    72ca:	83 e0       	ldi	r24, 0x03	; 3
    72cc:	6d 8d       	ldd	r22, Y+29	; 0x1d
    72ce:	0e 94 6b 37 	call	0x6ed6	; 0x6ed6 <SetPortValue>
	SetPinValue(PORT_B,2,1);              //enable E
    72d2:	81 e0       	ldi	r24, 0x01	; 1
    72d4:	62 e0       	ldi	r22, 0x02	; 2
    72d6:	41 e0       	ldi	r20, 0x01	; 1
    72d8:	0e 94 8a 36 	call	0x6d14	; 0x6d14 <SetPinValue>
    72dc:	80 e0       	ldi	r24, 0x00	; 0
    72de:	90 e0       	ldi	r25, 0x00	; 0
    72e0:	a0 e0       	ldi	r26, 0x00	; 0
    72e2:	b0 e4       	ldi	r27, 0x40	; 64
    72e4:	89 8f       	std	Y+25, r24	; 0x19
    72e6:	9a 8f       	std	Y+26, r25	; 0x1a
    72e8:	ab 8f       	std	Y+27, r26	; 0x1b
    72ea:	bc 8f       	std	Y+28, r27	; 0x1c
 */
void
_delay_ms(double __ms)
{
	uint16_t __ticks;
	double __tmp = ((F_CPU) / 4e3) * __ms;
    72ec:	69 8d       	ldd	r22, Y+25	; 0x19
    72ee:	7a 8d       	ldd	r23, Y+26	; 0x1a
    72f0:	8b 8d       	ldd	r24, Y+27	; 0x1b
    72f2:	9c 8d       	ldd	r25, Y+28	; 0x1c
    72f4:	20 e0       	ldi	r18, 0x00	; 0
    72f6:	30 e0       	ldi	r19, 0x00	; 0
    72f8:	4a e7       	ldi	r20, 0x7A	; 122
    72fa:	55 e4       	ldi	r21, 0x45	; 69
    72fc:	0e 94 78 31 	call	0x62f0	; 0x62f0 <__mulsf3>
    7300:	dc 01       	movw	r26, r24
    7302:	cb 01       	movw	r24, r22
    7304:	8d 8b       	std	Y+21, r24	; 0x15
    7306:	9e 8b       	std	Y+22, r25	; 0x16
    7308:	af 8b       	std	Y+23, r26	; 0x17
    730a:	b8 8f       	std	Y+24, r27	; 0x18
	if (__tmp < 1.0)
    730c:	6d 89       	ldd	r22, Y+21	; 0x15
    730e:	7e 89       	ldd	r23, Y+22	; 0x16
    7310:	8f 89       	ldd	r24, Y+23	; 0x17
    7312:	98 8d       	ldd	r25, Y+24	; 0x18
    7314:	20 e0       	ldi	r18, 0x00	; 0
    7316:	30 e0       	ldi	r19, 0x00	; 0
    7318:	40 e8       	ldi	r20, 0x80	; 128
    731a:	5f e3       	ldi	r21, 0x3F	; 63
    731c:	0e 94 d2 32 	call	0x65a4	; 0x65a4 <__ltsf2>
    7320:	88 23       	and	r24, r24
    7322:	2c f4       	brge	.+10     	; 0x732e <Lcd_voidWriteData+0x8e>
		__ticks = 1;
    7324:	81 e0       	ldi	r24, 0x01	; 1
    7326:	90 e0       	ldi	r25, 0x00	; 0
    7328:	9c 8b       	std	Y+20, r25	; 0x14
    732a:	8b 8b       	std	Y+19, r24	; 0x13
    732c:	3f c0       	rjmp	.+126    	; 0x73ac <Lcd_voidWriteData+0x10c>
	else if (__tmp > 65535)
    732e:	6d 89       	ldd	r22, Y+21	; 0x15
    7330:	7e 89       	ldd	r23, Y+22	; 0x16
    7332:	8f 89       	ldd	r24, Y+23	; 0x17
    7334:	98 8d       	ldd	r25, Y+24	; 0x18
    7336:	20 e0       	ldi	r18, 0x00	; 0
    7338:	3f ef       	ldi	r19, 0xFF	; 255
    733a:	4f e7       	ldi	r20, 0x7F	; 127
    733c:	57 e4       	ldi	r21, 0x47	; 71
    733e:	0e 94 72 32 	call	0x64e4	; 0x64e4 <__gtsf2>
    7342:	18 16       	cp	r1, r24
    7344:	4c f5       	brge	.+82     	; 0x7398 <Lcd_voidWriteData+0xf8>
	{
		//	__ticks = requested delay in 1/10 ms
		__ticks = (uint16_t) (__ms * 10.0);
    7346:	69 8d       	ldd	r22, Y+25	; 0x19
    7348:	7a 8d       	ldd	r23, Y+26	; 0x1a
    734a:	8b 8d       	ldd	r24, Y+27	; 0x1b
    734c:	9c 8d       	ldd	r25, Y+28	; 0x1c
    734e:	20 e0       	ldi	r18, 0x00	; 0
    7350:	30 e0       	ldi	r19, 0x00	; 0
    7352:	40 e2       	ldi	r20, 0x20	; 32
    7354:	51 e4       	ldi	r21, 0x41	; 65
    7356:	0e 94 78 31 	call	0x62f0	; 0x62f0 <__mulsf3>
    735a:	dc 01       	movw	r26, r24
    735c:	cb 01       	movw	r24, r22
    735e:	bc 01       	movw	r22, r24
    7360:	cd 01       	movw	r24, r26
    7362:	0e 94 a2 2f 	call	0x5f44	; 0x5f44 <__fixunssfsi>
    7366:	dc 01       	movw	r26, r24
    7368:	cb 01       	movw	r24, r22
    736a:	9c 8b       	std	Y+20, r25	; 0x14
    736c:	8b 8b       	std	Y+19, r24	; 0x13
    736e:	0f c0       	rjmp	.+30     	; 0x738e <Lcd_voidWriteData+0xee>
    7370:	80 e9       	ldi	r24, 0x90	; 144
    7372:	91 e0       	ldi	r25, 0x01	; 1
    7374:	9a 8b       	std	Y+18, r25	; 0x12
    7376:	89 8b       	std	Y+17, r24	; 0x11
    milliseconds can be achieved.
 */
void
_delay_loop_2(uint16_t __count)
{
	__asm__ volatile (
    7378:	89 89       	ldd	r24, Y+17	; 0x11
    737a:	9a 89       	ldd	r25, Y+18	; 0x12
    737c:	01 97       	sbiw	r24, 0x01	; 1
    737e:	f1 f7       	brne	.-4      	; 0x737c <Lcd_voidWriteData+0xdc>
    7380:	9a 8b       	std	Y+18, r25	; 0x12
    7382:	89 8b       	std	Y+17, r24	; 0x11
		while(__ticks)
		{
			// wait 1/10 ms
			_delay_loop_2(((F_CPU) / 4e3) / 10);
			__ticks --;
    7384:	8b 89       	ldd	r24, Y+19	; 0x13
    7386:	9c 89       	ldd	r25, Y+20	; 0x14
    7388:	01 97       	sbiw	r24, 0x01	; 1
    738a:	9c 8b       	std	Y+20, r25	; 0x14
    738c:	8b 8b       	std	Y+19, r24	; 0x13
		__ticks = 1;
	else if (__tmp > 65535)
	{
		//	__ticks = requested delay in 1/10 ms
		__ticks = (uint16_t) (__ms * 10.0);
		while(__ticks)
    738e:	8b 89       	ldd	r24, Y+19	; 0x13
    7390:	9c 89       	ldd	r25, Y+20	; 0x14
    7392:	00 97       	sbiw	r24, 0x00	; 0
    7394:	69 f7       	brne	.-38     	; 0x7370 <Lcd_voidWriteData+0xd0>
    7396:	14 c0       	rjmp	.+40     	; 0x73c0 <Lcd_voidWriteData+0x120>
			__ticks --;
		}
		return;
	}
	else
		__ticks = (uint16_t)__tmp;
    7398:	6d 89       	ldd	r22, Y+21	; 0x15
    739a:	7e 89       	ldd	r23, Y+22	; 0x16
    739c:	8f 89       	ldd	r24, Y+23	; 0x17
    739e:	98 8d       	ldd	r25, Y+24	; 0x18
    73a0:	0e 94 a2 2f 	call	0x5f44	; 0x5f44 <__fixunssfsi>
    73a4:	dc 01       	movw	r26, r24
    73a6:	cb 01       	movw	r24, r22
    73a8:	9c 8b       	std	Y+20, r25	; 0x14
    73aa:	8b 8b       	std	Y+19, r24	; 0x13
    73ac:	8b 89       	ldd	r24, Y+19	; 0x13
    73ae:	9c 89       	ldd	r25, Y+20	; 0x14
    73b0:	98 8b       	std	Y+16, r25	; 0x10
    73b2:	8f 87       	std	Y+15, r24	; 0x0f
    73b4:	8f 85       	ldd	r24, Y+15	; 0x0f
    73b6:	98 89       	ldd	r25, Y+16	; 0x10
    73b8:	01 97       	sbiw	r24, 0x01	; 1
    73ba:	f1 f7       	brne	.-4      	; 0x73b8 <Lcd_voidWriteData+0x118>
    73bc:	98 8b       	std	Y+16, r25	; 0x10
    73be:	8f 87       	std	Y+15, r24	; 0x0f
	_delay_ms(2);                    //for 1 ms
	SetPinValue(PORT_B,2,0);              //disable E
    73c0:	81 e0       	ldi	r24, 0x01	; 1
    73c2:	62 e0       	ldi	r22, 0x02	; 2
    73c4:	40 e0       	ldi	r20, 0x00	; 0
    73c6:	0e 94 8a 36 	call	0x6d14	; 0x6d14 <SetPinValue>
    73ca:	80 e0       	ldi	r24, 0x00	; 0
    73cc:	90 e0       	ldi	r25, 0x00	; 0
    73ce:	a0 e0       	ldi	r26, 0x00	; 0
    73d0:	b0 e4       	ldi	r27, 0x40	; 64
    73d2:	8b 87       	std	Y+11, r24	; 0x0b
    73d4:	9c 87       	std	Y+12, r25	; 0x0c
    73d6:	ad 87       	std	Y+13, r26	; 0x0d
    73d8:	be 87       	std	Y+14, r27	; 0x0e
 */
void
_delay_ms(double __ms)
{
	uint16_t __ticks;
	double __tmp = ((F_CPU) / 4e3) * __ms;
    73da:	6b 85       	ldd	r22, Y+11	; 0x0b
    73dc:	7c 85       	ldd	r23, Y+12	; 0x0c
    73de:	8d 85       	ldd	r24, Y+13	; 0x0d
    73e0:	9e 85       	ldd	r25, Y+14	; 0x0e
    73e2:	20 e0       	ldi	r18, 0x00	; 0
    73e4:	30 e0       	ldi	r19, 0x00	; 0
    73e6:	4a e7       	ldi	r20, 0x7A	; 122
    73e8:	55 e4       	ldi	r21, 0x45	; 69
    73ea:	0e 94 78 31 	call	0x62f0	; 0x62f0 <__mulsf3>
    73ee:	dc 01       	movw	r26, r24
    73f0:	cb 01       	movw	r24, r22
    73f2:	8f 83       	std	Y+7, r24	; 0x07
    73f4:	98 87       	std	Y+8, r25	; 0x08
    73f6:	a9 87       	std	Y+9, r26	; 0x09
    73f8:	ba 87       	std	Y+10, r27	; 0x0a
	if (__tmp < 1.0)
    73fa:	6f 81       	ldd	r22, Y+7	; 0x07
    73fc:	78 85       	ldd	r23, Y+8	; 0x08
    73fe:	89 85       	ldd	r24, Y+9	; 0x09
    7400:	9a 85       	ldd	r25, Y+10	; 0x0a
    7402:	20 e0       	ldi	r18, 0x00	; 0
    7404:	30 e0       	ldi	r19, 0x00	; 0
    7406:	40 e8       	ldi	r20, 0x80	; 128
    7408:	5f e3       	ldi	r21, 0x3F	; 63
    740a:	0e 94 d2 32 	call	0x65a4	; 0x65a4 <__ltsf2>
    740e:	88 23       	and	r24, r24
    7410:	2c f4       	brge	.+10     	; 0x741c <Lcd_voidWriteData+0x17c>
		__ticks = 1;
    7412:	81 e0       	ldi	r24, 0x01	; 1
    7414:	90 e0       	ldi	r25, 0x00	; 0
    7416:	9e 83       	std	Y+6, r25	; 0x06
    7418:	8d 83       	std	Y+5, r24	; 0x05
    741a:	3f c0       	rjmp	.+126    	; 0x749a <Lcd_voidWriteData+0x1fa>
	else if (__tmp > 65535)
    741c:	6f 81       	ldd	r22, Y+7	; 0x07
    741e:	78 85       	ldd	r23, Y+8	; 0x08
    7420:	89 85       	ldd	r24, Y+9	; 0x09
    7422:	9a 85       	ldd	r25, Y+10	; 0x0a
    7424:	20 e0       	ldi	r18, 0x00	; 0
    7426:	3f ef       	ldi	r19, 0xFF	; 255
    7428:	4f e7       	ldi	r20, 0x7F	; 127
    742a:	57 e4       	ldi	r21, 0x47	; 71
    742c:	0e 94 72 32 	call	0x64e4	; 0x64e4 <__gtsf2>
    7430:	18 16       	cp	r1, r24
    7432:	4c f5       	brge	.+82     	; 0x7486 <Lcd_voidWriteData+0x1e6>
	{
		//	__ticks = requested delay in 1/10 ms
		__ticks = (uint16_t) (__ms * 10.0);
    7434:	6b 85       	ldd	r22, Y+11	; 0x0b
    7436:	7c 85       	ldd	r23, Y+12	; 0x0c
    7438:	8d 85       	ldd	r24, Y+13	; 0x0d
    743a:	9e 85       	ldd	r25, Y+14	; 0x0e
    743c:	20 e0       	ldi	r18, 0x00	; 0
    743e:	30 e0       	ldi	r19, 0x00	; 0
    7440:	40 e2       	ldi	r20, 0x20	; 32
    7442:	51 e4       	ldi	r21, 0x41	; 65
    7444:	0e 94 78 31 	call	0x62f0	; 0x62f0 <__mulsf3>
    7448:	dc 01       	movw	r26, r24
    744a:	cb 01       	movw	r24, r22
    744c:	bc 01       	movw	r22, r24
    744e:	cd 01       	movw	r24, r26
    7450:	0e 94 a2 2f 	call	0x5f44	; 0x5f44 <__fixunssfsi>
    7454:	dc 01       	movw	r26, r24
    7456:	cb 01       	movw	r24, r22
    7458:	9e 83       	std	Y+6, r25	; 0x06
    745a:	8d 83       	std	Y+5, r24	; 0x05
    745c:	0f c0       	rjmp	.+30     	; 0x747c <Lcd_voidWriteData+0x1dc>
    745e:	80 e9       	ldi	r24, 0x90	; 144
    7460:	91 e0       	ldi	r25, 0x01	; 1
    7462:	9c 83       	std	Y+4, r25	; 0x04
    7464:	8b 83       	std	Y+3, r24	; 0x03
    7466:	8b 81       	ldd	r24, Y+3	; 0x03
    7468:	9c 81       	ldd	r25, Y+4	; 0x04
    746a:	01 97       	sbiw	r24, 0x01	; 1
    746c:	f1 f7       	brne	.-4      	; 0x746a <Lcd_voidWriteData+0x1ca>
    746e:	9c 83       	std	Y+4, r25	; 0x04
    7470:	8b 83       	std	Y+3, r24	; 0x03
		while(__ticks)
		{
			// wait 1/10 ms
			_delay_loop_2(((F_CPU) / 4e3) / 10);
			__ticks --;
    7472:	8d 81       	ldd	r24, Y+5	; 0x05
    7474:	9e 81       	ldd	r25, Y+6	; 0x06
    7476:	01 97       	sbiw	r24, 0x01	; 1
    7478:	9e 83       	std	Y+6, r25	; 0x06
    747a:	8d 83       	std	Y+5, r24	; 0x05
		__ticks = 1;
	else if (__tmp > 65535)
	{
		//	__ticks = requested delay in 1/10 ms
		__ticks = (uint16_t) (__ms * 10.0);
		while(__ticks)
    747c:	8d 81       	ldd	r24, Y+5	; 0x05
    747e:	9e 81       	ldd	r25, Y+6	; 0x06
    7480:	00 97       	sbiw	r24, 0x00	; 0
    7482:	69 f7       	brne	.-38     	; 0x745e <Lcd_voidWriteData+0x1be>
    7484:	14 c0       	rjmp	.+40     	; 0x74ae <Lcd_voidWriteData+0x20e>
			__ticks --;
		}
		return;
	}
	else
		__ticks = (uint16_t)__tmp;
    7486:	6f 81       	ldd	r22, Y+7	; 0x07
    7488:	78 85       	ldd	r23, Y+8	; 0x08
    748a:	89 85       	ldd	r24, Y+9	; 0x09
    748c:	9a 85       	ldd	r25, Y+10	; 0x0a
    748e:	0e 94 a2 2f 	call	0x5f44	; 0x5f44 <__fixunssfsi>
    7492:	dc 01       	movw	r26, r24
    7494:	cb 01       	movw	r24, r22
    7496:	9e 83       	std	Y+6, r25	; 0x06
    7498:	8d 83       	std	Y+5, r24	; 0x05
    749a:	8d 81       	ldd	r24, Y+5	; 0x05
    749c:	9e 81       	ldd	r25, Y+6	; 0x06
    749e:	9a 83       	std	Y+2, r25	; 0x02
    74a0:	89 83       	std	Y+1, r24	; 0x01
    74a2:	89 81       	ldd	r24, Y+1	; 0x01
    74a4:	9a 81       	ldd	r25, Y+2	; 0x02
    74a6:	01 97       	sbiw	r24, 0x01	; 1
    74a8:	f1 f7       	brne	.-4      	; 0x74a6 <Lcd_voidWriteData+0x206>
    74aa:	9a 83       	std	Y+2, r25	; 0x02
    74ac:	89 83       	std	Y+1, r24	; 0x01
	_delay_ms(2);                    //for 1 ms

}
    74ae:	6d 96       	adiw	r28, 0x1d	; 29
    74b0:	0f b6       	in	r0, 0x3f	; 63
    74b2:	f8 94       	cli
    74b4:	de bf       	out	0x3e, r29	; 62
    74b6:	0f be       	out	0x3f, r0	; 63
    74b8:	cd bf       	out	0x3d, r28	; 61
    74ba:	cf 91       	pop	r28
    74bc:	df 91       	pop	r29
    74be:	08 95       	ret

000074c0 <Lcd_voidWriteCmd>:
void Lcd_voidWriteCmd( u8 Argument_u8character )
{
    74c0:	df 93       	push	r29
    74c2:	cf 93       	push	r28
    74c4:	cd b7       	in	r28, 0x3d	; 61
    74c6:	de b7       	in	r29, 0x3e	; 62
    74c8:	6d 97       	sbiw	r28, 0x1d	; 29
    74ca:	0f b6       	in	r0, 0x3f	; 63
    74cc:	f8 94       	cli
    74ce:	de bf       	out	0x3e, r29	; 62
    74d0:	0f be       	out	0x3f, r0	; 63
    74d2:	cd bf       	out	0x3d, r28	; 61
    74d4:	8d 8f       	std	Y+29, r24	; 0x1d
	SetPinValue(PORT_B,0,0);               //RS choose command mode
    74d6:	81 e0       	ldi	r24, 0x01	; 1
    74d8:	60 e0       	ldi	r22, 0x00	; 0
    74da:	40 e0       	ldi	r20, 0x00	; 0
    74dc:	0e 94 8a 36 	call	0x6d14	; 0x6d14 <SetPinValue>
	SetPinValue(PORT_B,1,0);               //R/W choose write mode
    74e0:	81 e0       	ldi	r24, 0x01	; 1
    74e2:	61 e0       	ldi	r22, 0x01	; 1
    74e4:	40 e0       	ldi	r20, 0x00	; 0
    74e6:	0e 94 8a 36 	call	0x6d14	; 0x6d14 <SetPinValue>

//	PORTD = 0;
//
//	PORTA = Argument_u8character;
	SetPortValue(PORT_D , Argument_u8character);   //pass the command
    74ea:	83 e0       	ldi	r24, 0x03	; 3
    74ec:	6d 8d       	ldd	r22, Y+29	; 0x1d
    74ee:	0e 94 6b 37 	call	0x6ed6	; 0x6ed6 <SetPortValue>
	SetPinValue(PORT_B,2,1);              //enable E
    74f2:	81 e0       	ldi	r24, 0x01	; 1
    74f4:	62 e0       	ldi	r22, 0x02	; 2
    74f6:	41 e0       	ldi	r20, 0x01	; 1
    74f8:	0e 94 8a 36 	call	0x6d14	; 0x6d14 <SetPinValue>
    74fc:	80 e0       	ldi	r24, 0x00	; 0
    74fe:	90 e0       	ldi	r25, 0x00	; 0
    7500:	a0 e2       	ldi	r26, 0x20	; 32
    7502:	b1 e4       	ldi	r27, 0x41	; 65
    7504:	89 8f       	std	Y+25, r24	; 0x19
    7506:	9a 8f       	std	Y+26, r25	; 0x1a
    7508:	ab 8f       	std	Y+27, r26	; 0x1b
    750a:	bc 8f       	std	Y+28, r27	; 0x1c
 */
void
_delay_ms(double __ms)
{
	uint16_t __ticks;
	double __tmp = ((F_CPU) / 4e3) * __ms;
    750c:	69 8d       	ldd	r22, Y+25	; 0x19
    750e:	7a 8d       	ldd	r23, Y+26	; 0x1a
    7510:	8b 8d       	ldd	r24, Y+27	; 0x1b
    7512:	9c 8d       	ldd	r25, Y+28	; 0x1c
    7514:	20 e0       	ldi	r18, 0x00	; 0
    7516:	30 e0       	ldi	r19, 0x00	; 0
    7518:	4a e7       	ldi	r20, 0x7A	; 122
    751a:	55 e4       	ldi	r21, 0x45	; 69
    751c:	0e 94 78 31 	call	0x62f0	; 0x62f0 <__mulsf3>
    7520:	dc 01       	movw	r26, r24
    7522:	cb 01       	movw	r24, r22
    7524:	8d 8b       	std	Y+21, r24	; 0x15
    7526:	9e 8b       	std	Y+22, r25	; 0x16
    7528:	af 8b       	std	Y+23, r26	; 0x17
    752a:	b8 8f       	std	Y+24, r27	; 0x18
	if (__tmp < 1.0)
    752c:	6d 89       	ldd	r22, Y+21	; 0x15
    752e:	7e 89       	ldd	r23, Y+22	; 0x16
    7530:	8f 89       	ldd	r24, Y+23	; 0x17
    7532:	98 8d       	ldd	r25, Y+24	; 0x18
    7534:	20 e0       	ldi	r18, 0x00	; 0
    7536:	30 e0       	ldi	r19, 0x00	; 0
    7538:	40 e8       	ldi	r20, 0x80	; 128
    753a:	5f e3       	ldi	r21, 0x3F	; 63
    753c:	0e 94 d2 32 	call	0x65a4	; 0x65a4 <__ltsf2>
    7540:	88 23       	and	r24, r24
    7542:	2c f4       	brge	.+10     	; 0x754e <Lcd_voidWriteCmd+0x8e>
		__ticks = 1;
    7544:	81 e0       	ldi	r24, 0x01	; 1
    7546:	90 e0       	ldi	r25, 0x00	; 0
    7548:	9c 8b       	std	Y+20, r25	; 0x14
    754a:	8b 8b       	std	Y+19, r24	; 0x13
    754c:	3f c0       	rjmp	.+126    	; 0x75cc <Lcd_voidWriteCmd+0x10c>
	else if (__tmp > 65535)
    754e:	6d 89       	ldd	r22, Y+21	; 0x15
    7550:	7e 89       	ldd	r23, Y+22	; 0x16
    7552:	8f 89       	ldd	r24, Y+23	; 0x17
    7554:	98 8d       	ldd	r25, Y+24	; 0x18
    7556:	20 e0       	ldi	r18, 0x00	; 0
    7558:	3f ef       	ldi	r19, 0xFF	; 255
    755a:	4f e7       	ldi	r20, 0x7F	; 127
    755c:	57 e4       	ldi	r21, 0x47	; 71
    755e:	0e 94 72 32 	call	0x64e4	; 0x64e4 <__gtsf2>
    7562:	18 16       	cp	r1, r24
    7564:	4c f5       	brge	.+82     	; 0x75b8 <Lcd_voidWriteCmd+0xf8>
	{
		//	__ticks = requested delay in 1/10 ms
		__ticks = (uint16_t) (__ms * 10.0);
    7566:	69 8d       	ldd	r22, Y+25	; 0x19
    7568:	7a 8d       	ldd	r23, Y+26	; 0x1a
    756a:	8b 8d       	ldd	r24, Y+27	; 0x1b
    756c:	9c 8d       	ldd	r25, Y+28	; 0x1c
    756e:	20 e0       	ldi	r18, 0x00	; 0
    7570:	30 e0       	ldi	r19, 0x00	; 0
    7572:	40 e2       	ldi	r20, 0x20	; 32
    7574:	51 e4       	ldi	r21, 0x41	; 65
    7576:	0e 94 78 31 	call	0x62f0	; 0x62f0 <__mulsf3>
    757a:	dc 01       	movw	r26, r24
    757c:	cb 01       	movw	r24, r22
    757e:	bc 01       	movw	r22, r24
    7580:	cd 01       	movw	r24, r26
    7582:	0e 94 a2 2f 	call	0x5f44	; 0x5f44 <__fixunssfsi>
    7586:	dc 01       	movw	r26, r24
    7588:	cb 01       	movw	r24, r22
    758a:	9c 8b       	std	Y+20, r25	; 0x14
    758c:	8b 8b       	std	Y+19, r24	; 0x13
    758e:	0f c0       	rjmp	.+30     	; 0x75ae <Lcd_voidWriteCmd+0xee>
    7590:	80 e9       	ldi	r24, 0x90	; 144
    7592:	91 e0       	ldi	r25, 0x01	; 1
    7594:	9a 8b       	std	Y+18, r25	; 0x12
    7596:	89 8b       	std	Y+17, r24	; 0x11
    7598:	89 89       	ldd	r24, Y+17	; 0x11
    759a:	9a 89       	ldd	r25, Y+18	; 0x12
    759c:	01 97       	sbiw	r24, 0x01	; 1
    759e:	f1 f7       	brne	.-4      	; 0x759c <Lcd_voidWriteCmd+0xdc>
    75a0:	9a 8b       	std	Y+18, r25	; 0x12
    75a2:	89 8b       	std	Y+17, r24	; 0x11
		while(__ticks)
		{
			// wait 1/10 ms
			_delay_loop_2(((F_CPU) / 4e3) / 10);
			__ticks --;
    75a4:	8b 89       	ldd	r24, Y+19	; 0x13
    75a6:	9c 89       	ldd	r25, Y+20	; 0x14
    75a8:	01 97       	sbiw	r24, 0x01	; 1
    75aa:	9c 8b       	std	Y+20, r25	; 0x14
    75ac:	8b 8b       	std	Y+19, r24	; 0x13
		__ticks = 1;
	else if (__tmp > 65535)
	{
		//	__ticks = requested delay in 1/10 ms
		__ticks = (uint16_t) (__ms * 10.0);
		while(__ticks)
    75ae:	8b 89       	ldd	r24, Y+19	; 0x13
    75b0:	9c 89       	ldd	r25, Y+20	; 0x14
    75b2:	00 97       	sbiw	r24, 0x00	; 0
    75b4:	69 f7       	brne	.-38     	; 0x7590 <Lcd_voidWriteCmd+0xd0>
    75b6:	14 c0       	rjmp	.+40     	; 0x75e0 <Lcd_voidWriteCmd+0x120>
			__ticks --;
		}
		return;
	}
	else
		__ticks = (uint16_t)__tmp;
    75b8:	6d 89       	ldd	r22, Y+21	; 0x15
    75ba:	7e 89       	ldd	r23, Y+22	; 0x16
    75bc:	8f 89       	ldd	r24, Y+23	; 0x17
    75be:	98 8d       	ldd	r25, Y+24	; 0x18
    75c0:	0e 94 a2 2f 	call	0x5f44	; 0x5f44 <__fixunssfsi>
    75c4:	dc 01       	movw	r26, r24
    75c6:	cb 01       	movw	r24, r22
    75c8:	9c 8b       	std	Y+20, r25	; 0x14
    75ca:	8b 8b       	std	Y+19, r24	; 0x13
    75cc:	8b 89       	ldd	r24, Y+19	; 0x13
    75ce:	9c 89       	ldd	r25, Y+20	; 0x14
    75d0:	98 8b       	std	Y+16, r25	; 0x10
    75d2:	8f 87       	std	Y+15, r24	; 0x0f
    75d4:	8f 85       	ldd	r24, Y+15	; 0x0f
    75d6:	98 89       	ldd	r25, Y+16	; 0x10
    75d8:	01 97       	sbiw	r24, 0x01	; 1
    75da:	f1 f7       	brne	.-4      	; 0x75d8 <Lcd_voidWriteCmd+0x118>
    75dc:	98 8b       	std	Y+16, r25	; 0x10
    75de:	8f 87       	std	Y+15, r24	; 0x0f

//	PORTD |= 0x04;
	_delay_ms(10);                    //for 1 ms
	SetPinValue(PORT_B,2,0);              //disable E
    75e0:	81 e0       	ldi	r24, 0x01	; 1
    75e2:	62 e0       	ldi	r22, 0x02	; 2
    75e4:	40 e0       	ldi	r20, 0x00	; 0
    75e6:	0e 94 8a 36 	call	0x6d14	; 0x6d14 <SetPinValue>
    75ea:	80 e0       	ldi	r24, 0x00	; 0
    75ec:	90 e0       	ldi	r25, 0x00	; 0
    75ee:	a0 e2       	ldi	r26, 0x20	; 32
    75f0:	b1 e4       	ldi	r27, 0x41	; 65
    75f2:	8b 87       	std	Y+11, r24	; 0x0b
    75f4:	9c 87       	std	Y+12, r25	; 0x0c
    75f6:	ad 87       	std	Y+13, r26	; 0x0d
    75f8:	be 87       	std	Y+14, r27	; 0x0e
 */
void
_delay_ms(double __ms)
{
	uint16_t __ticks;
	double __tmp = ((F_CPU) / 4e3) * __ms;
    75fa:	6b 85       	ldd	r22, Y+11	; 0x0b
    75fc:	7c 85       	ldd	r23, Y+12	; 0x0c
    75fe:	8d 85       	ldd	r24, Y+13	; 0x0d
    7600:	9e 85       	ldd	r25, Y+14	; 0x0e
    7602:	20 e0       	ldi	r18, 0x00	; 0
    7604:	30 e0       	ldi	r19, 0x00	; 0
    7606:	4a e7       	ldi	r20, 0x7A	; 122
    7608:	55 e4       	ldi	r21, 0x45	; 69
    760a:	0e 94 78 31 	call	0x62f0	; 0x62f0 <__mulsf3>
    760e:	dc 01       	movw	r26, r24
    7610:	cb 01       	movw	r24, r22
    7612:	8f 83       	std	Y+7, r24	; 0x07
    7614:	98 87       	std	Y+8, r25	; 0x08
    7616:	a9 87       	std	Y+9, r26	; 0x09
    7618:	ba 87       	std	Y+10, r27	; 0x0a
	if (__tmp < 1.0)
    761a:	6f 81       	ldd	r22, Y+7	; 0x07
    761c:	78 85       	ldd	r23, Y+8	; 0x08
    761e:	89 85       	ldd	r24, Y+9	; 0x09
    7620:	9a 85       	ldd	r25, Y+10	; 0x0a
    7622:	20 e0       	ldi	r18, 0x00	; 0
    7624:	30 e0       	ldi	r19, 0x00	; 0
    7626:	40 e8       	ldi	r20, 0x80	; 128
    7628:	5f e3       	ldi	r21, 0x3F	; 63
    762a:	0e 94 d2 32 	call	0x65a4	; 0x65a4 <__ltsf2>
    762e:	88 23       	and	r24, r24
    7630:	2c f4       	brge	.+10     	; 0x763c <Lcd_voidWriteCmd+0x17c>
		__ticks = 1;
    7632:	81 e0       	ldi	r24, 0x01	; 1
    7634:	90 e0       	ldi	r25, 0x00	; 0
    7636:	9e 83       	std	Y+6, r25	; 0x06
    7638:	8d 83       	std	Y+5, r24	; 0x05
    763a:	3f c0       	rjmp	.+126    	; 0x76ba <Lcd_voidWriteCmd+0x1fa>
	else if (__tmp > 65535)
    763c:	6f 81       	ldd	r22, Y+7	; 0x07
    763e:	78 85       	ldd	r23, Y+8	; 0x08
    7640:	89 85       	ldd	r24, Y+9	; 0x09
    7642:	9a 85       	ldd	r25, Y+10	; 0x0a
    7644:	20 e0       	ldi	r18, 0x00	; 0
    7646:	3f ef       	ldi	r19, 0xFF	; 255
    7648:	4f e7       	ldi	r20, 0x7F	; 127
    764a:	57 e4       	ldi	r21, 0x47	; 71
    764c:	0e 94 72 32 	call	0x64e4	; 0x64e4 <__gtsf2>
    7650:	18 16       	cp	r1, r24
    7652:	4c f5       	brge	.+82     	; 0x76a6 <Lcd_voidWriteCmd+0x1e6>
	{
		//	__ticks = requested delay in 1/10 ms
		__ticks = (uint16_t) (__ms * 10.0);
    7654:	6b 85       	ldd	r22, Y+11	; 0x0b
    7656:	7c 85       	ldd	r23, Y+12	; 0x0c
    7658:	8d 85       	ldd	r24, Y+13	; 0x0d
    765a:	9e 85       	ldd	r25, Y+14	; 0x0e
    765c:	20 e0       	ldi	r18, 0x00	; 0
    765e:	30 e0       	ldi	r19, 0x00	; 0
    7660:	40 e2       	ldi	r20, 0x20	; 32
    7662:	51 e4       	ldi	r21, 0x41	; 65
    7664:	0e 94 78 31 	call	0x62f0	; 0x62f0 <__mulsf3>
    7668:	dc 01       	movw	r26, r24
    766a:	cb 01       	movw	r24, r22
    766c:	bc 01       	movw	r22, r24
    766e:	cd 01       	movw	r24, r26
    7670:	0e 94 a2 2f 	call	0x5f44	; 0x5f44 <__fixunssfsi>
    7674:	dc 01       	movw	r26, r24
    7676:	cb 01       	movw	r24, r22
    7678:	9e 83       	std	Y+6, r25	; 0x06
    767a:	8d 83       	std	Y+5, r24	; 0x05
    767c:	0f c0       	rjmp	.+30     	; 0x769c <Lcd_voidWriteCmd+0x1dc>
    767e:	80 e9       	ldi	r24, 0x90	; 144
    7680:	91 e0       	ldi	r25, 0x01	; 1
    7682:	9c 83       	std	Y+4, r25	; 0x04
    7684:	8b 83       	std	Y+3, r24	; 0x03
    7686:	8b 81       	ldd	r24, Y+3	; 0x03
    7688:	9c 81       	ldd	r25, Y+4	; 0x04
    768a:	01 97       	sbiw	r24, 0x01	; 1
    768c:	f1 f7       	brne	.-4      	; 0x768a <Lcd_voidWriteCmd+0x1ca>
    768e:	9c 83       	std	Y+4, r25	; 0x04
    7690:	8b 83       	std	Y+3, r24	; 0x03
		while(__ticks)
		{
			// wait 1/10 ms
			_delay_loop_2(((F_CPU) / 4e3) / 10);
			__ticks --;
    7692:	8d 81       	ldd	r24, Y+5	; 0x05
    7694:	9e 81       	ldd	r25, Y+6	; 0x06
    7696:	01 97       	sbiw	r24, 0x01	; 1
    7698:	9e 83       	std	Y+6, r25	; 0x06
    769a:	8d 83       	std	Y+5, r24	; 0x05
		__ticks = 1;
	else if (__tmp > 65535)
	{
		//	__ticks = requested delay in 1/10 ms
		__ticks = (uint16_t) (__ms * 10.0);
		while(__ticks)
    769c:	8d 81       	ldd	r24, Y+5	; 0x05
    769e:	9e 81       	ldd	r25, Y+6	; 0x06
    76a0:	00 97       	sbiw	r24, 0x00	; 0
    76a2:	69 f7       	brne	.-38     	; 0x767e <Lcd_voidWriteCmd+0x1be>
    76a4:	14 c0       	rjmp	.+40     	; 0x76ce <Lcd_voidWriteCmd+0x20e>
			__ticks --;
		}
		return;
	}
	else
		__ticks = (uint16_t)__tmp;
    76a6:	6f 81       	ldd	r22, Y+7	; 0x07
    76a8:	78 85       	ldd	r23, Y+8	; 0x08
    76aa:	89 85       	ldd	r24, Y+9	; 0x09
    76ac:	9a 85       	ldd	r25, Y+10	; 0x0a
    76ae:	0e 94 a2 2f 	call	0x5f44	; 0x5f44 <__fixunssfsi>
    76b2:	dc 01       	movw	r26, r24
    76b4:	cb 01       	movw	r24, r22
    76b6:	9e 83       	std	Y+6, r25	; 0x06
    76b8:	8d 83       	std	Y+5, r24	; 0x05
    76ba:	8d 81       	ldd	r24, Y+5	; 0x05
    76bc:	9e 81       	ldd	r25, Y+6	; 0x06
    76be:	9a 83       	std	Y+2, r25	; 0x02
    76c0:	89 83       	std	Y+1, r24	; 0x01
    76c2:	89 81       	ldd	r24, Y+1	; 0x01
    76c4:	9a 81       	ldd	r25, Y+2	; 0x02
    76c6:	01 97       	sbiw	r24, 0x01	; 1
    76c8:	f1 f7       	brne	.-4      	; 0x76c6 <Lcd_voidWriteCmd+0x206>
    76ca:	9a 83       	std	Y+2, r25	; 0x02
    76cc:	89 83       	std	Y+1, r24	; 0x01
//	PORTD &= 0b11111011;
	_delay_ms(10);                    //for 1 ms

}
    76ce:	6d 96       	adiw	r28, 0x1d	; 29
    76d0:	0f b6       	in	r0, 0x3f	; 63
    76d2:	f8 94       	cli
    76d4:	de bf       	out	0x3e, r29	; 62
    76d6:	0f be       	out	0x3f, r0	; 63
    76d8:	cd bf       	out	0x3d, r28	; 61
    76da:	cf 91       	pop	r28
    76dc:	df 91       	pop	r29
    76de:	08 95       	ret

000076e0 <Lcd_voidInit>:

void Lcd_voidInit(void)
{
    76e0:	df 93       	push	r29
    76e2:	cf 93       	push	r28
    76e4:	cd b7       	in	r28, 0x3d	; 61
    76e6:	de b7       	in	r29, 0x3e	; 62
    76e8:	aa 97       	sbiw	r28, 0x2a	; 42
    76ea:	0f b6       	in	r0, 0x3f	; 63
    76ec:	f8 94       	cli
    76ee:	de bf       	out	0x3e, r29	; 62
    76f0:	0f be       	out	0x3f, r0	; 63
    76f2:	cd bf       	out	0x3d, r28	; 61
    76f4:	80 e0       	ldi	r24, 0x00	; 0
    76f6:	90 e0       	ldi	r25, 0x00	; 0
    76f8:	a0 ef       	ldi	r26, 0xF0	; 240
    76fa:	b1 e4       	ldi	r27, 0x41	; 65
    76fc:	8f a3       	std	Y+39, r24	; 0x27
    76fe:	98 a7       	std	Y+40, r25	; 0x28
    7700:	a9 a7       	std	Y+41, r26	; 0x29
    7702:	ba a7       	std	Y+42, r27	; 0x2a
 */
void
_delay_ms(double __ms)
{
	uint16_t __ticks;
	double __tmp = ((F_CPU) / 4e3) * __ms;
    7704:	6f a1       	ldd	r22, Y+39	; 0x27
    7706:	78 a5       	ldd	r23, Y+40	; 0x28
    7708:	89 a5       	ldd	r24, Y+41	; 0x29
    770a:	9a a5       	ldd	r25, Y+42	; 0x2a
    770c:	20 e0       	ldi	r18, 0x00	; 0
    770e:	30 e0       	ldi	r19, 0x00	; 0
    7710:	4a e7       	ldi	r20, 0x7A	; 122
    7712:	55 e4       	ldi	r21, 0x45	; 69
    7714:	0e 94 78 31 	call	0x62f0	; 0x62f0 <__mulsf3>
    7718:	dc 01       	movw	r26, r24
    771a:	cb 01       	movw	r24, r22
    771c:	8b a3       	std	Y+35, r24	; 0x23
    771e:	9c a3       	std	Y+36, r25	; 0x24
    7720:	ad a3       	std	Y+37, r26	; 0x25
    7722:	be a3       	std	Y+38, r27	; 0x26
	if (__tmp < 1.0)
    7724:	6b a1       	ldd	r22, Y+35	; 0x23
    7726:	7c a1       	ldd	r23, Y+36	; 0x24
    7728:	8d a1       	ldd	r24, Y+37	; 0x25
    772a:	9e a1       	ldd	r25, Y+38	; 0x26
    772c:	20 e0       	ldi	r18, 0x00	; 0
    772e:	30 e0       	ldi	r19, 0x00	; 0
    7730:	40 e8       	ldi	r20, 0x80	; 128
    7732:	5f e3       	ldi	r21, 0x3F	; 63
    7734:	0e 94 d2 32 	call	0x65a4	; 0x65a4 <__ltsf2>
    7738:	88 23       	and	r24, r24
    773a:	2c f4       	brge	.+10     	; 0x7746 <Lcd_voidInit+0x66>
		__ticks = 1;
    773c:	81 e0       	ldi	r24, 0x01	; 1
    773e:	90 e0       	ldi	r25, 0x00	; 0
    7740:	9a a3       	std	Y+34, r25	; 0x22
    7742:	89 a3       	std	Y+33, r24	; 0x21
    7744:	3f c0       	rjmp	.+126    	; 0x77c4 <Lcd_voidInit+0xe4>
	else if (__tmp > 65535)
    7746:	6b a1       	ldd	r22, Y+35	; 0x23
    7748:	7c a1       	ldd	r23, Y+36	; 0x24
    774a:	8d a1       	ldd	r24, Y+37	; 0x25
    774c:	9e a1       	ldd	r25, Y+38	; 0x26
    774e:	20 e0       	ldi	r18, 0x00	; 0
    7750:	3f ef       	ldi	r19, 0xFF	; 255
    7752:	4f e7       	ldi	r20, 0x7F	; 127
    7754:	57 e4       	ldi	r21, 0x47	; 71
    7756:	0e 94 72 32 	call	0x64e4	; 0x64e4 <__gtsf2>
    775a:	18 16       	cp	r1, r24
    775c:	4c f5       	brge	.+82     	; 0x77b0 <Lcd_voidInit+0xd0>
	{
		//	__ticks = requested delay in 1/10 ms
		__ticks = (uint16_t) (__ms * 10.0);
    775e:	6f a1       	ldd	r22, Y+39	; 0x27
    7760:	78 a5       	ldd	r23, Y+40	; 0x28
    7762:	89 a5       	ldd	r24, Y+41	; 0x29
    7764:	9a a5       	ldd	r25, Y+42	; 0x2a
    7766:	20 e0       	ldi	r18, 0x00	; 0
    7768:	30 e0       	ldi	r19, 0x00	; 0
    776a:	40 e2       	ldi	r20, 0x20	; 32
    776c:	51 e4       	ldi	r21, 0x41	; 65
    776e:	0e 94 78 31 	call	0x62f0	; 0x62f0 <__mulsf3>
    7772:	dc 01       	movw	r26, r24
    7774:	cb 01       	movw	r24, r22
    7776:	bc 01       	movw	r22, r24
    7778:	cd 01       	movw	r24, r26
    777a:	0e 94 a2 2f 	call	0x5f44	; 0x5f44 <__fixunssfsi>
    777e:	dc 01       	movw	r26, r24
    7780:	cb 01       	movw	r24, r22
    7782:	9a a3       	std	Y+34, r25	; 0x22
    7784:	89 a3       	std	Y+33, r24	; 0x21
    7786:	0f c0       	rjmp	.+30     	; 0x77a6 <Lcd_voidInit+0xc6>
    7788:	80 e9       	ldi	r24, 0x90	; 144
    778a:	91 e0       	ldi	r25, 0x01	; 1
    778c:	98 a3       	std	Y+32, r25	; 0x20
    778e:	8f 8f       	std	Y+31, r24	; 0x1f
    7790:	8f 8d       	ldd	r24, Y+31	; 0x1f
    7792:	98 a1       	ldd	r25, Y+32	; 0x20
    7794:	01 97       	sbiw	r24, 0x01	; 1
    7796:	f1 f7       	brne	.-4      	; 0x7794 <Lcd_voidInit+0xb4>
    7798:	98 a3       	std	Y+32, r25	; 0x20
    779a:	8f 8f       	std	Y+31, r24	; 0x1f
		while(__ticks)
		{
			// wait 1/10 ms
			_delay_loop_2(((F_CPU) / 4e3) / 10);
			__ticks --;
    779c:	89 a1       	ldd	r24, Y+33	; 0x21
    779e:	9a a1       	ldd	r25, Y+34	; 0x22
    77a0:	01 97       	sbiw	r24, 0x01	; 1
    77a2:	9a a3       	std	Y+34, r25	; 0x22
    77a4:	89 a3       	std	Y+33, r24	; 0x21
		__ticks = 1;
	else if (__tmp > 65535)
	{
		//	__ticks = requested delay in 1/10 ms
		__ticks = (uint16_t) (__ms * 10.0);
		while(__ticks)
    77a6:	89 a1       	ldd	r24, Y+33	; 0x21
    77a8:	9a a1       	ldd	r25, Y+34	; 0x22
    77aa:	00 97       	sbiw	r24, 0x00	; 0
    77ac:	69 f7       	brne	.-38     	; 0x7788 <Lcd_voidInit+0xa8>
    77ae:	14 c0       	rjmp	.+40     	; 0x77d8 <Lcd_voidInit+0xf8>
			__ticks --;
		}
		return;
	}
	else
		__ticks = (uint16_t)__tmp;
    77b0:	6b a1       	ldd	r22, Y+35	; 0x23
    77b2:	7c a1       	ldd	r23, Y+36	; 0x24
    77b4:	8d a1       	ldd	r24, Y+37	; 0x25
    77b6:	9e a1       	ldd	r25, Y+38	; 0x26
    77b8:	0e 94 a2 2f 	call	0x5f44	; 0x5f44 <__fixunssfsi>
    77bc:	dc 01       	movw	r26, r24
    77be:	cb 01       	movw	r24, r22
    77c0:	9a a3       	std	Y+34, r25	; 0x22
    77c2:	89 a3       	std	Y+33, r24	; 0x21
    77c4:	89 a1       	ldd	r24, Y+33	; 0x21
    77c6:	9a a1       	ldd	r25, Y+34	; 0x22
    77c8:	9e 8f       	std	Y+30, r25	; 0x1e
    77ca:	8d 8f       	std	Y+29, r24	; 0x1d
    77cc:	8d 8d       	ldd	r24, Y+29	; 0x1d
    77ce:	9e 8d       	ldd	r25, Y+30	; 0x1e
    77d0:	01 97       	sbiw	r24, 0x01	; 1
    77d2:	f1 f7       	brne	.-4      	; 0x77d0 <Lcd_voidInit+0xf0>
    77d4:	9e 8f       	std	Y+30, r25	; 0x1e
    77d6:	8d 8f       	std	Y+29, r24	; 0x1d
	_delay_ms(30);
	Lcd_voidWriteCmd(0b00111000);    // 0011 NF xx  .. N number of line .. F ( 5x9 || 5x7 )
    77d8:	88 e3       	ldi	r24, 0x38	; 56
    77da:	0e 94 60 3a 	call	0x74c0	; 0x74c0 <Lcd_voidWriteCmd>
    77de:	80 e0       	ldi	r24, 0x00	; 0
    77e0:	90 e0       	ldi	r25, 0x00	; 0
    77e2:	a0 e0       	ldi	r26, 0x00	; 0
    77e4:	b0 e4       	ldi	r27, 0x40	; 64
    77e6:	89 8f       	std	Y+25, r24	; 0x19
    77e8:	9a 8f       	std	Y+26, r25	; 0x1a
    77ea:	ab 8f       	std	Y+27, r26	; 0x1b
    77ec:	bc 8f       	std	Y+28, r27	; 0x1c
 */
void
_delay_ms(double __ms)
{
	uint16_t __ticks;
	double __tmp = ((F_CPU) / 4e3) * __ms;
    77ee:	69 8d       	ldd	r22, Y+25	; 0x19
    77f0:	7a 8d       	ldd	r23, Y+26	; 0x1a
    77f2:	8b 8d       	ldd	r24, Y+27	; 0x1b
    77f4:	9c 8d       	ldd	r25, Y+28	; 0x1c
    77f6:	20 e0       	ldi	r18, 0x00	; 0
    77f8:	30 e0       	ldi	r19, 0x00	; 0
    77fa:	4a e7       	ldi	r20, 0x7A	; 122
    77fc:	55 e4       	ldi	r21, 0x45	; 69
    77fe:	0e 94 78 31 	call	0x62f0	; 0x62f0 <__mulsf3>
    7802:	dc 01       	movw	r26, r24
    7804:	cb 01       	movw	r24, r22
    7806:	8d 8b       	std	Y+21, r24	; 0x15
    7808:	9e 8b       	std	Y+22, r25	; 0x16
    780a:	af 8b       	std	Y+23, r26	; 0x17
    780c:	b8 8f       	std	Y+24, r27	; 0x18
	if (__tmp < 1.0)
    780e:	6d 89       	ldd	r22, Y+21	; 0x15
    7810:	7e 89       	ldd	r23, Y+22	; 0x16
    7812:	8f 89       	ldd	r24, Y+23	; 0x17
    7814:	98 8d       	ldd	r25, Y+24	; 0x18
    7816:	20 e0       	ldi	r18, 0x00	; 0
    7818:	30 e0       	ldi	r19, 0x00	; 0
    781a:	40 e8       	ldi	r20, 0x80	; 128
    781c:	5f e3       	ldi	r21, 0x3F	; 63
    781e:	0e 94 d2 32 	call	0x65a4	; 0x65a4 <__ltsf2>
    7822:	88 23       	and	r24, r24
    7824:	2c f4       	brge	.+10     	; 0x7830 <Lcd_voidInit+0x150>
		__ticks = 1;
    7826:	81 e0       	ldi	r24, 0x01	; 1
    7828:	90 e0       	ldi	r25, 0x00	; 0
    782a:	9c 8b       	std	Y+20, r25	; 0x14
    782c:	8b 8b       	std	Y+19, r24	; 0x13
    782e:	3f c0       	rjmp	.+126    	; 0x78ae <Lcd_voidInit+0x1ce>
	else if (__tmp > 65535)
    7830:	6d 89       	ldd	r22, Y+21	; 0x15
    7832:	7e 89       	ldd	r23, Y+22	; 0x16
    7834:	8f 89       	ldd	r24, Y+23	; 0x17
    7836:	98 8d       	ldd	r25, Y+24	; 0x18
    7838:	20 e0       	ldi	r18, 0x00	; 0
    783a:	3f ef       	ldi	r19, 0xFF	; 255
    783c:	4f e7       	ldi	r20, 0x7F	; 127
    783e:	57 e4       	ldi	r21, 0x47	; 71
    7840:	0e 94 72 32 	call	0x64e4	; 0x64e4 <__gtsf2>
    7844:	18 16       	cp	r1, r24
    7846:	4c f5       	brge	.+82     	; 0x789a <Lcd_voidInit+0x1ba>
	{
		//	__ticks = requested delay in 1/10 ms
		__ticks = (uint16_t) (__ms * 10.0);
    7848:	69 8d       	ldd	r22, Y+25	; 0x19
    784a:	7a 8d       	ldd	r23, Y+26	; 0x1a
    784c:	8b 8d       	ldd	r24, Y+27	; 0x1b
    784e:	9c 8d       	ldd	r25, Y+28	; 0x1c
    7850:	20 e0       	ldi	r18, 0x00	; 0
    7852:	30 e0       	ldi	r19, 0x00	; 0
    7854:	40 e2       	ldi	r20, 0x20	; 32
    7856:	51 e4       	ldi	r21, 0x41	; 65
    7858:	0e 94 78 31 	call	0x62f0	; 0x62f0 <__mulsf3>
    785c:	dc 01       	movw	r26, r24
    785e:	cb 01       	movw	r24, r22
    7860:	bc 01       	movw	r22, r24
    7862:	cd 01       	movw	r24, r26
    7864:	0e 94 a2 2f 	call	0x5f44	; 0x5f44 <__fixunssfsi>
    7868:	dc 01       	movw	r26, r24
    786a:	cb 01       	movw	r24, r22
    786c:	9c 8b       	std	Y+20, r25	; 0x14
    786e:	8b 8b       	std	Y+19, r24	; 0x13
    7870:	0f c0       	rjmp	.+30     	; 0x7890 <Lcd_voidInit+0x1b0>
    7872:	80 e9       	ldi	r24, 0x90	; 144
    7874:	91 e0       	ldi	r25, 0x01	; 1
    7876:	9a 8b       	std	Y+18, r25	; 0x12
    7878:	89 8b       	std	Y+17, r24	; 0x11
    787a:	89 89       	ldd	r24, Y+17	; 0x11
    787c:	9a 89       	ldd	r25, Y+18	; 0x12
    787e:	01 97       	sbiw	r24, 0x01	; 1
    7880:	f1 f7       	brne	.-4      	; 0x787e <Lcd_voidInit+0x19e>
    7882:	9a 8b       	std	Y+18, r25	; 0x12
    7884:	89 8b       	std	Y+17, r24	; 0x11
		while(__ticks)
		{
			// wait 1/10 ms
			_delay_loop_2(((F_CPU) / 4e3) / 10);
			__ticks --;
    7886:	8b 89       	ldd	r24, Y+19	; 0x13
    7888:	9c 89       	ldd	r25, Y+20	; 0x14
    788a:	01 97       	sbiw	r24, 0x01	; 1
    788c:	9c 8b       	std	Y+20, r25	; 0x14
    788e:	8b 8b       	std	Y+19, r24	; 0x13
		__ticks = 1;
	else if (__tmp > 65535)
	{
		//	__ticks = requested delay in 1/10 ms
		__ticks = (uint16_t) (__ms * 10.0);
		while(__ticks)
    7890:	8b 89       	ldd	r24, Y+19	; 0x13
    7892:	9c 89       	ldd	r25, Y+20	; 0x14
    7894:	00 97       	sbiw	r24, 0x00	; 0
    7896:	69 f7       	brne	.-38     	; 0x7872 <Lcd_voidInit+0x192>
    7898:	14 c0       	rjmp	.+40     	; 0x78c2 <Lcd_voidInit+0x1e2>
			__ticks --;
		}
		return;
	}
	else
		__ticks = (uint16_t)__tmp;
    789a:	6d 89       	ldd	r22, Y+21	; 0x15
    789c:	7e 89       	ldd	r23, Y+22	; 0x16
    789e:	8f 89       	ldd	r24, Y+23	; 0x17
    78a0:	98 8d       	ldd	r25, Y+24	; 0x18
    78a2:	0e 94 a2 2f 	call	0x5f44	; 0x5f44 <__fixunssfsi>
    78a6:	dc 01       	movw	r26, r24
    78a8:	cb 01       	movw	r24, r22
    78aa:	9c 8b       	std	Y+20, r25	; 0x14
    78ac:	8b 8b       	std	Y+19, r24	; 0x13
    78ae:	8b 89       	ldd	r24, Y+19	; 0x13
    78b0:	9c 89       	ldd	r25, Y+20	; 0x14
    78b2:	98 8b       	std	Y+16, r25	; 0x10
    78b4:	8f 87       	std	Y+15, r24	; 0x0f
    78b6:	8f 85       	ldd	r24, Y+15	; 0x0f
    78b8:	98 89       	ldd	r25, Y+16	; 0x10
    78ba:	01 97       	sbiw	r24, 0x01	; 1
    78bc:	f1 f7       	brne	.-4      	; 0x78ba <Lcd_voidInit+0x1da>
    78be:	98 8b       	std	Y+16, r25	; 0x10
    78c0:	8f 87       	std	Y+15, r24	; 0x0f
	_delay_ms(2);
	Lcd_voidWriteCmd(0b00001100);//00001DCB ..D ON OFF..C cursor ON OFF.. B blink cursor ON OFF
    78c2:	8c e0       	ldi	r24, 0x0C	; 12
    78c4:	0e 94 60 3a 	call	0x74c0	; 0x74c0 <Lcd_voidWriteCmd>
    78c8:	80 e0       	ldi	r24, 0x00	; 0
    78ca:	90 e0       	ldi	r25, 0x00	; 0
    78cc:	a0 e0       	ldi	r26, 0x00	; 0
    78ce:	b0 e4       	ldi	r27, 0x40	; 64
    78d0:	8b 87       	std	Y+11, r24	; 0x0b
    78d2:	9c 87       	std	Y+12, r25	; 0x0c
    78d4:	ad 87       	std	Y+13, r26	; 0x0d
    78d6:	be 87       	std	Y+14, r27	; 0x0e
 */
void
_delay_ms(double __ms)
{
	uint16_t __ticks;
	double __tmp = ((F_CPU) / 4e3) * __ms;
    78d8:	6b 85       	ldd	r22, Y+11	; 0x0b
    78da:	7c 85       	ldd	r23, Y+12	; 0x0c
    78dc:	8d 85       	ldd	r24, Y+13	; 0x0d
    78de:	9e 85       	ldd	r25, Y+14	; 0x0e
    78e0:	20 e0       	ldi	r18, 0x00	; 0
    78e2:	30 e0       	ldi	r19, 0x00	; 0
    78e4:	4a e7       	ldi	r20, 0x7A	; 122
    78e6:	55 e4       	ldi	r21, 0x45	; 69
    78e8:	0e 94 78 31 	call	0x62f0	; 0x62f0 <__mulsf3>
    78ec:	dc 01       	movw	r26, r24
    78ee:	cb 01       	movw	r24, r22
    78f0:	8f 83       	std	Y+7, r24	; 0x07
    78f2:	98 87       	std	Y+8, r25	; 0x08
    78f4:	a9 87       	std	Y+9, r26	; 0x09
    78f6:	ba 87       	std	Y+10, r27	; 0x0a
	if (__tmp < 1.0)
    78f8:	6f 81       	ldd	r22, Y+7	; 0x07
    78fa:	78 85       	ldd	r23, Y+8	; 0x08
    78fc:	89 85       	ldd	r24, Y+9	; 0x09
    78fe:	9a 85       	ldd	r25, Y+10	; 0x0a
    7900:	20 e0       	ldi	r18, 0x00	; 0
    7902:	30 e0       	ldi	r19, 0x00	; 0
    7904:	40 e8       	ldi	r20, 0x80	; 128
    7906:	5f e3       	ldi	r21, 0x3F	; 63
    7908:	0e 94 d2 32 	call	0x65a4	; 0x65a4 <__ltsf2>
    790c:	88 23       	and	r24, r24
    790e:	2c f4       	brge	.+10     	; 0x791a <Lcd_voidInit+0x23a>
		__ticks = 1;
    7910:	81 e0       	ldi	r24, 0x01	; 1
    7912:	90 e0       	ldi	r25, 0x00	; 0
    7914:	9e 83       	std	Y+6, r25	; 0x06
    7916:	8d 83       	std	Y+5, r24	; 0x05
    7918:	3f c0       	rjmp	.+126    	; 0x7998 <Lcd_voidInit+0x2b8>
	else if (__tmp > 65535)
    791a:	6f 81       	ldd	r22, Y+7	; 0x07
    791c:	78 85       	ldd	r23, Y+8	; 0x08
    791e:	89 85       	ldd	r24, Y+9	; 0x09
    7920:	9a 85       	ldd	r25, Y+10	; 0x0a
    7922:	20 e0       	ldi	r18, 0x00	; 0
    7924:	3f ef       	ldi	r19, 0xFF	; 255
    7926:	4f e7       	ldi	r20, 0x7F	; 127
    7928:	57 e4       	ldi	r21, 0x47	; 71
    792a:	0e 94 72 32 	call	0x64e4	; 0x64e4 <__gtsf2>
    792e:	18 16       	cp	r1, r24
    7930:	4c f5       	brge	.+82     	; 0x7984 <Lcd_voidInit+0x2a4>
	{
		//	__ticks = requested delay in 1/10 ms
		__ticks = (uint16_t) (__ms * 10.0);
    7932:	6b 85       	ldd	r22, Y+11	; 0x0b
    7934:	7c 85       	ldd	r23, Y+12	; 0x0c
    7936:	8d 85       	ldd	r24, Y+13	; 0x0d
    7938:	9e 85       	ldd	r25, Y+14	; 0x0e
    793a:	20 e0       	ldi	r18, 0x00	; 0
    793c:	30 e0       	ldi	r19, 0x00	; 0
    793e:	40 e2       	ldi	r20, 0x20	; 32
    7940:	51 e4       	ldi	r21, 0x41	; 65
    7942:	0e 94 78 31 	call	0x62f0	; 0x62f0 <__mulsf3>
    7946:	dc 01       	movw	r26, r24
    7948:	cb 01       	movw	r24, r22
    794a:	bc 01       	movw	r22, r24
    794c:	cd 01       	movw	r24, r26
    794e:	0e 94 a2 2f 	call	0x5f44	; 0x5f44 <__fixunssfsi>
    7952:	dc 01       	movw	r26, r24
    7954:	cb 01       	movw	r24, r22
    7956:	9e 83       	std	Y+6, r25	; 0x06
    7958:	8d 83       	std	Y+5, r24	; 0x05
    795a:	0f c0       	rjmp	.+30     	; 0x797a <Lcd_voidInit+0x29a>
    795c:	80 e9       	ldi	r24, 0x90	; 144
    795e:	91 e0       	ldi	r25, 0x01	; 1
    7960:	9c 83       	std	Y+4, r25	; 0x04
    7962:	8b 83       	std	Y+3, r24	; 0x03
    7964:	8b 81       	ldd	r24, Y+3	; 0x03
    7966:	9c 81       	ldd	r25, Y+4	; 0x04
    7968:	01 97       	sbiw	r24, 0x01	; 1
    796a:	f1 f7       	brne	.-4      	; 0x7968 <Lcd_voidInit+0x288>
    796c:	9c 83       	std	Y+4, r25	; 0x04
    796e:	8b 83       	std	Y+3, r24	; 0x03
		while(__ticks)
		{
			// wait 1/10 ms
			_delay_loop_2(((F_CPU) / 4e3) / 10);
			__ticks --;
    7970:	8d 81       	ldd	r24, Y+5	; 0x05
    7972:	9e 81       	ldd	r25, Y+6	; 0x06
    7974:	01 97       	sbiw	r24, 0x01	; 1
    7976:	9e 83       	std	Y+6, r25	; 0x06
    7978:	8d 83       	std	Y+5, r24	; 0x05
		__ticks = 1;
	else if (__tmp > 65535)
	{
		//	__ticks = requested delay in 1/10 ms
		__ticks = (uint16_t) (__ms * 10.0);
		while(__ticks)
    797a:	8d 81       	ldd	r24, Y+5	; 0x05
    797c:	9e 81       	ldd	r25, Y+6	; 0x06
    797e:	00 97       	sbiw	r24, 0x00	; 0
    7980:	69 f7       	brne	.-38     	; 0x795c <Lcd_voidInit+0x27c>
    7982:	14 c0       	rjmp	.+40     	; 0x79ac <Lcd_voidInit+0x2cc>
			__ticks --;
		}
		return;
	}
	else
		__ticks = (uint16_t)__tmp;
    7984:	6f 81       	ldd	r22, Y+7	; 0x07
    7986:	78 85       	ldd	r23, Y+8	; 0x08
    7988:	89 85       	ldd	r24, Y+9	; 0x09
    798a:	9a 85       	ldd	r25, Y+10	; 0x0a
    798c:	0e 94 a2 2f 	call	0x5f44	; 0x5f44 <__fixunssfsi>
    7990:	dc 01       	movw	r26, r24
    7992:	cb 01       	movw	r24, r22
    7994:	9e 83       	std	Y+6, r25	; 0x06
    7996:	8d 83       	std	Y+5, r24	; 0x05
    7998:	8d 81       	ldd	r24, Y+5	; 0x05
    799a:	9e 81       	ldd	r25, Y+6	; 0x06
    799c:	9a 83       	std	Y+2, r25	; 0x02
    799e:	89 83       	std	Y+1, r24	; 0x01
    79a0:	89 81       	ldd	r24, Y+1	; 0x01
    79a2:	9a 81       	ldd	r25, Y+2	; 0x02
    79a4:	01 97       	sbiw	r24, 0x01	; 1
    79a6:	f1 f7       	brne	.-4      	; 0x79a4 <Lcd_voidInit+0x2c4>
    79a8:	9a 83       	std	Y+2, r25	; 0x02
    79aa:	89 83       	std	Y+1, r24	; 0x01
	_delay_ms(2);
	Lcd_voidWriteCmd(0b00000001); //clear
    79ac:	81 e0       	ldi	r24, 0x01	; 1
    79ae:	0e 94 60 3a 	call	0x74c0	; 0x74c0 <Lcd_voidWriteCmd>
}
    79b2:	aa 96       	adiw	r28, 0x2a	; 42
    79b4:	0f b6       	in	r0, 0x3f	; 63
    79b6:	f8 94       	cli
    79b8:	de bf       	out	0x3e, r29	; 62
    79ba:	0f be       	out	0x3f, r0	; 63
    79bc:	cd bf       	out	0x3d, r28	; 61
    79be:	cf 91       	pop	r28
    79c0:	df 91       	pop	r29
    79c2:	08 95       	ret

000079c4 <pwm_init>:
u8 f=0;
extern volatile u16 data;
extern volatile u16 Ch2Data;
//
void pwm_init(void)
{
    79c4:	df 93       	push	r29
    79c6:	cf 93       	push	r28
    79c8:	cd b7       	in	r28, 0x3d	; 61
    79ca:	de b7       	in	r29, 0x3e	; 62
    /* use OC0 pin as output */
	SetPinDirection(PORT_B,3,1);
    79cc:	81 e0       	ldi	r24, 0x01	; 1
    79ce:	63 e0       	ldi	r22, 0x03	; 3
    79d0:	41 e0       	ldi	r20, 0x01	; 1
    79d2:	0e 94 f1 35 	call	0x6be2	; 0x6be2 <SetPinDirection>
    /*
    * clear OC0 on compare match
    * set OC0 at BOTTOM, non-inverting mode
    * Fast PWM, 8bit
    */
	SET_BIT(TCCR0,COM01);
    79d6:	a3 e5       	ldi	r26, 0x53	; 83
    79d8:	b0 e0       	ldi	r27, 0x00	; 0
    79da:	e3 e5       	ldi	r30, 0x53	; 83
    79dc:	f0 e0       	ldi	r31, 0x00	; 0
    79de:	80 81       	ld	r24, Z
    79e0:	80 62       	ori	r24, 0x20	; 32
    79e2:	8c 93       	st	X, r24
	SET_BIT(TCCR0,WGM00);
    79e4:	a3 e5       	ldi	r26, 0x53	; 83
    79e6:	b0 e0       	ldi	r27, 0x00	; 0
    79e8:	e3 e5       	ldi	r30, 0x53	; 83
    79ea:	f0 e0       	ldi	r31, 0x00	; 0
    79ec:	80 81       	ld	r24, Z
    79ee:	80 64       	ori	r24, 0x40	; 64
    79f0:	8c 93       	st	X, r24
	SET_BIT(TCCR0,WGM01);
    79f2:	a3 e5       	ldi	r26, 0x53	; 83
    79f4:	b0 e0       	ldi	r27, 0x00	; 0
    79f6:	e3 e5       	ldi	r30, 0x53	; 83
    79f8:	f0 e0       	ldi	r31, 0x00	; 0
    79fa:	80 81       	ld	r24, Z
    79fc:	88 60       	ori	r24, 0x08	; 8
    79fe:	8c 93       	st	X, r24
    * Fast PWM, 8bit
    * Prescaler: clk/1 = 16MHz
    * PWM frequency = 16MHz / (255 + 1) = 62.5kHz
    */
//	SET_BIT(TCCR1B,WGM12);
	SET_BIT(TCCR0,CS00);
    7a00:	a3 e5       	ldi	r26, 0x53	; 83
    7a02:	b0 e0       	ldi	r27, 0x00	; 0
    7a04:	e3 e5       	ldi	r30, 0x53	; 83
    7a06:	f0 e0       	ldi	r31, 0x00	; 0
    7a08:	80 81       	ld	r24, Z
    7a0a:	81 60       	ori	r24, 0x01	; 1
    7a0c:	8c 93       	st	X, r24

    // TCCR1B = _BV(WGM12) | _BV(CS10);

    /* set initial duty cycle to zero */
    OCR0 = 0;
    7a0e:	ec e5       	ldi	r30, 0x5C	; 92
    7a10:	f0 e0       	ldi	r31, 0x00	; 0
    7a12:	10 82       	st	Z, r1

    /* Setup Timer0 which will make preiodic over flow interrupt */

    TCCR2|=(1<<CS00);
    7a14:	a5 e4       	ldi	r26, 0x45	; 69
    7a16:	b0 e0       	ldi	r27, 0x00	; 0
    7a18:	e5 e4       	ldi	r30, 0x45	; 69
    7a1a:	f0 e0       	ldi	r31, 0x00	; 0
    7a1c:	80 81       	ld	r24, Z
    7a1e:	81 60       	ori	r24, 0x01	; 1
    7a20:	8c 93       	st	X, r24
    TCNT2=0;
    7a22:	e4 e4       	ldi	r30, 0x44	; 68
    7a24:	f0 e0       	ldi	r31, 0x00	; 0
    7a26:	10 82       	st	Z, r1
    TIMSK|=(1<<TOIE2);
    7a28:	a9 e5       	ldi	r26, 0x59	; 89
    7a2a:	b0 e0       	ldi	r27, 0x00	; 0
    7a2c:	e9 e5       	ldi	r30, 0x59	; 89
    7a2e:	f0 e0       	ldi	r31, 0x00	; 0
    7a30:	80 81       	ld	r24, Z
    7a32:	80 64       	ori	r24, 0x40	; 64
    7a34:	8c 93       	st	X, r24
    sample_count = 8;
    7a36:	88 e0       	ldi	r24, 0x08	; 8
    7a38:	90 e0       	ldi	r25, 0x00	; 0
    7a3a:	90 93 99 00 	sts	0x0099, r25
    7a3e:	80 93 98 00 	sts	0x0098, r24
    sei(); //Enable interrupts
    7a42:	78 94       	sei
}
    7a44:	cf 91       	pop	r28
    7a46:	df 91       	pop	r29
    7a48:	08 95       	ret

00007a4a <__vector_5>:

ISR(TIMER2_OVF_vect)
{
    7a4a:	1f 92       	push	r1
    7a4c:	0f 92       	push	r0
    7a4e:	0f b6       	in	r0, 0x3f	; 63
    7a50:	0f 92       	push	r0
    7a52:	11 24       	eor	r1, r1
    7a54:	2f 93       	push	r18
    7a56:	3f 93       	push	r19
    7a58:	4f 93       	push	r20
    7a5a:	5f 93       	push	r21
    7a5c:	6f 93       	push	r22
    7a5e:	7f 93       	push	r23
    7a60:	8f 93       	push	r24
    7a62:	9f 93       	push	r25
    7a64:	af 93       	push	r26
    7a66:	bf 93       	push	r27
    7a68:	ef 93       	push	r30
    7a6a:	ff 93       	push	r31
    7a6c:	df 93       	push	r29
    7a6e:	cf 93       	push	r28
    7a70:	cd b7       	in	r28, 0x3d	; 61
    7a72:	de b7       	in	r29, 0x3e	; 62
    7a74:	2c 97       	sbiw	r28, 0x0c	; 12
    7a76:	de bf       	out	0x3e, r29	; 62
    7a78:	cd bf       	out	0x3d, r28	; 61



         sample_count--;
    7a7a:	80 91 98 00 	lds	r24, 0x0098
    7a7e:	90 91 99 00 	lds	r25, 0x0099
    7a82:	01 97       	sbiw	r24, 0x01	; 1
    7a84:	90 93 99 00 	sts	0x0099, r25
    7a88:	80 93 98 00 	sts	0x0098, r24
         if (sample_count == 0)
    7a8c:	80 91 98 00 	lds	r24, 0x0098
    7a90:	90 91 99 00 	lds	r25, 0x0099
    7a94:	00 97       	sbiw	r24, 0x00	; 0
    7a96:	09 f0       	breq	.+2      	; 0x7a9a <__vector_5+0x50>
    7a98:	5b c1       	rjmp	.+694    	; 0x7d50 <__vector_5+0x306>
            {
             sample_count = 8;        // (62.5khz / 8 ) = 8 kHz our sampling rate
    7a9a:	88 e0       	ldi	r24, 0x08	; 8
    7a9c:	90 e0       	ldi	r25, 0x00	; 0
    7a9e:	90 93 99 00 	sts	0x0099, r25
    7aa2:	80 93 98 00 	sts	0x0098, r24
            if( ( Ch2Data < 500 ) && (data<700) && (f!=3) )
    7aa6:	80 91 dc 00 	lds	r24, 0x00DC
    7aaa:	90 91 dd 00 	lds	r25, 0x00DD
    7aae:	21 e0       	ldi	r18, 0x01	; 1
    7ab0:	84 3f       	cpi	r24, 0xF4	; 244
    7ab2:	92 07       	cpc	r25, r18
    7ab4:	08 f0       	brcs	.+2      	; 0x7ab8 <__vector_5+0x6e>
    7ab6:	4e c0       	rjmp	.+156    	; 0x7b54 <__vector_5+0x10a>
    7ab8:	80 91 de 00 	lds	r24, 0x00DE
    7abc:	90 91 df 00 	lds	r25, 0x00DF
    7ac0:	22 e0       	ldi	r18, 0x02	; 2
    7ac2:	8c 3b       	cpi	r24, 0xBC	; 188
    7ac4:	92 07       	cpc	r25, r18
    7ac6:	08 f0       	brcs	.+2      	; 0x7aca <__vector_5+0x80>
    7ac8:	45 c0       	rjmp	.+138    	; 0x7b54 <__vector_5+0x10a>
    7aca:	80 91 97 00 	lds	r24, 0x0097
    7ace:	83 30       	cpi	r24, 0x03	; 3
    7ad0:	09 f4       	brne	.+2      	; 0x7ad4 <__vector_5+0x8a>
    7ad2:	40 c0       	rjmp	.+128    	; 0x7b54 <__vector_5+0x10a>
             {
                OCR0 = pgm_read_byte(&shokran_samples[sample++]);
    7ad4:	ac e5       	ldi	r26, 0x5C	; 92
    7ad6:	b0 e0       	ldi	r27, 0x00	; 0
    7ad8:	20 91 9a 00 	lds	r18, 0x009A
    7adc:	30 91 9b 00 	lds	r19, 0x009B
    7ae0:	c9 01       	movw	r24, r18
    7ae2:	8c 5a       	subi	r24, 0xAC	; 172
    7ae4:	9f 4f       	sbci	r25, 0xFF	; 255
    7ae6:	9c 87       	std	Y+12, r25	; 0x0c
    7ae8:	8b 87       	std	Y+11, r24	; 0x0b
    7aea:	c9 01       	movw	r24, r18
    7aec:	01 96       	adiw	r24, 0x01	; 1
    7aee:	90 93 9b 00 	sts	0x009B, r25
    7af2:	80 93 9a 00 	sts	0x009A, r24
    7af6:	eb 85       	ldd	r30, Y+11	; 0x0b
    7af8:	fc 85       	ldd	r31, Y+12	; 0x0c
    7afa:	84 91       	lpm	r24, Z+
    7afc:	8a 87       	std	Y+10, r24	; 0x0a
    7afe:	8a 85       	ldd	r24, Y+10	; 0x0a
    7b00:	8c 93       	st	X, r24
               if(sample>shokran_length)
    7b02:	80 91 9a 00 	lds	r24, 0x009A
    7b06:	90 91 9b 00 	lds	r25, 0x009B
    7b0a:	9c 01       	movw	r18, r24
    7b0c:	40 e0       	ldi	r20, 0x00	; 0
    7b0e:	50 e0       	ldi	r21, 0x00	; 0
    7b10:	80 91 7e 00 	lds	r24, 0x007E
    7b14:	90 91 7f 00 	lds	r25, 0x007F
    7b18:	a0 91 80 00 	lds	r26, 0x0080
    7b1c:	b0 91 81 00 	lds	r27, 0x0081
    7b20:	82 17       	cp	r24, r18
    7b22:	93 07       	cpc	r25, r19
    7b24:	a4 07       	cpc	r26, r20
    7b26:	b5 07       	cpc	r27, r21
    7b28:	0c f0       	brlt	.+2      	; 0x7b2c <__vector_5+0xe2>
    7b2a:	12 c1       	rjmp	.+548    	; 0x7d50 <__vector_5+0x306>
            	 {
             	 Lcd_voidWriteCmd(0b00000001);
    7b2c:	81 e0       	ldi	r24, 0x01	; 1
    7b2e:	0e 94 60 3a 	call	0x74c0	; 0x74c0 <Lcd_voidWriteCmd>
             	 Lcd_voidWriteCmd(0b10000100);
    7b32:	84 e8       	ldi	r24, 0x84	; 132
    7b34:	0e 94 60 3a 	call	0x74c0	; 0x74c0 <Lcd_voidWriteCmd>
            	 EEPROM_GetData(128);
    7b38:	80 e8       	ldi	r24, 0x80	; 128
    7b3a:	0e 94 f1 38 	call	0x71e2	; 0x71e2 <EEPROM_GetData>
            	 sample=0;
    7b3e:	10 92 9b 00 	sts	0x009B, r1
    7b42:	10 92 9a 00 	sts	0x009A, r1
            	 f=3;
    7b46:	83 e0       	ldi	r24, 0x03	; 3
    7b48:	80 93 97 00 	sts	0x0097, r24
            	 W=1;          //to start write
    7b4c:	81 e0       	ldi	r24, 0x01	; 1
    7b4e:	80 93 96 00 	sts	0x0096, r24
    7b52:	fe c0       	rjmp	.+508    	; 0x7d50 <__vector_5+0x306>
            	 }
               }
             else if( (Ch2Data> 500) && (data>700) && (f!=1) )
    7b54:	80 91 dc 00 	lds	r24, 0x00DC
    7b58:	90 91 dd 00 	lds	r25, 0x00DD
    7b5c:	21 e0       	ldi	r18, 0x01	; 1
    7b5e:	85 3f       	cpi	r24, 0xF5	; 245
    7b60:	92 07       	cpc	r25, r18
    7b62:	08 f4       	brcc	.+2      	; 0x7b66 <__vector_5+0x11c>
    7b64:	4e c0       	rjmp	.+156    	; 0x7c02 <__vector_5+0x1b8>
    7b66:	80 91 de 00 	lds	r24, 0x00DE
    7b6a:	90 91 df 00 	lds	r25, 0x00DF
    7b6e:	22 e0       	ldi	r18, 0x02	; 2
    7b70:	8d 3b       	cpi	r24, 0xBD	; 189
    7b72:	92 07       	cpc	r25, r18
    7b74:	08 f4       	brcc	.+2      	; 0x7b78 <__vector_5+0x12e>
    7b76:	45 c0       	rjmp	.+138    	; 0x7c02 <__vector_5+0x1b8>
    7b78:	80 91 97 00 	lds	r24, 0x0097
    7b7c:	81 30       	cpi	r24, 0x01	; 1
    7b7e:	09 f4       	brne	.+2      	; 0x7b82 <__vector_5+0x138>
    7b80:	40 c0       	rjmp	.+128    	; 0x7c02 <__vector_5+0x1b8>
               {

                 OCR0 = pgm_read_byte(&Basm_Allah[sample++]);
    7b82:	ac e5       	ldi	r26, 0x5C	; 92
    7b84:	b0 e0       	ldi	r27, 0x00	; 0
    7b86:	20 91 9a 00 	lds	r18, 0x009A
    7b8a:	30 91 9b 00 	lds	r19, 0x009B
    7b8e:	c9 01       	movw	r24, r18
    7b90:	8b 54       	subi	r24, 0x4B	; 75
    7b92:	9e 4d       	sbci	r25, 0xDE	; 222
    7b94:	99 87       	std	Y+9, r25	; 0x09
    7b96:	88 87       	std	Y+8, r24	; 0x08
    7b98:	c9 01       	movw	r24, r18
    7b9a:	01 96       	adiw	r24, 0x01	; 1
    7b9c:	90 93 9b 00 	sts	0x009B, r25
    7ba0:	80 93 9a 00 	sts	0x009A, r24
    7ba4:	e8 85       	ldd	r30, Y+8	; 0x08
    7ba6:	f9 85       	ldd	r31, Y+9	; 0x09
    7ba8:	84 91       	lpm	r24, Z+
    7baa:	8f 83       	std	Y+7, r24	; 0x07
    7bac:	8f 81       	ldd	r24, Y+7	; 0x07
    7bae:	8c 93       	st	X, r24
                   if(sample>Basm_allah_length)
    7bb0:	80 91 9a 00 	lds	r24, 0x009A
    7bb4:	90 91 9b 00 	lds	r25, 0x009B
    7bb8:	9c 01       	movw	r18, r24
    7bba:	40 e0       	ldi	r20, 0x00	; 0
    7bbc:	50 e0       	ldi	r21, 0x00	; 0
    7bbe:	80 91 82 00 	lds	r24, 0x0082
    7bc2:	90 91 83 00 	lds	r25, 0x0083
    7bc6:	a0 91 84 00 	lds	r26, 0x0084
    7bca:	b0 91 85 00 	lds	r27, 0x0085
    7bce:	82 17       	cp	r24, r18
    7bd0:	93 07       	cpc	r25, r19
    7bd2:	a4 07       	cpc	r26, r20
    7bd4:	b5 07       	cpc	r27, r21
    7bd6:	0c f0       	brlt	.+2      	; 0x7bda <__vector_5+0x190>
    7bd8:	bb c0       	rjmp	.+374    	; 0x7d50 <__vector_5+0x306>
                  	 {
               	     Lcd_voidWriteCmd(0b00000001);
    7bda:	81 e0       	ldi	r24, 0x01	; 1
    7bdc:	0e 94 60 3a 	call	0x74c0	; 0x74c0 <Lcd_voidWriteCmd>
               		Lcd_voidWriteCmd(0b10000100);
    7be0:	84 e8       	ldi	r24, 0x84	; 132
    7be2:	0e 94 60 3a 	call	0x74c0	; 0x74c0 <Lcd_voidWriteCmd>
                	 EEPROM_GetData(0);
    7be6:	80 e0       	ldi	r24, 0x00	; 0
    7be8:	0e 94 f1 38 	call	0x71e2	; 0x71e2 <EEPROM_GetData>
                  	 sample=0;
    7bec:	10 92 9b 00 	sts	0x009B, r1
    7bf0:	10 92 9a 00 	sts	0x009A, r1
                  	 f=1;
    7bf4:	81 e0       	ldi	r24, 0x01	; 1
    7bf6:	80 93 97 00 	sts	0x0097, r24
                  	 W=1;
    7bfa:	81 e0       	ldi	r24, 0x01	; 1
    7bfc:	80 93 96 00 	sts	0x0096, r24
    7c00:	a7 c0       	rjmp	.+334    	; 0x7d50 <__vector_5+0x306>
                  	 }
               }
             else if(  (Ch2Data > 500) && (data<700) && (f!=2) )
    7c02:	80 91 dc 00 	lds	r24, 0x00DC
    7c06:	90 91 dd 00 	lds	r25, 0x00DD
    7c0a:	21 e0       	ldi	r18, 0x01	; 1
    7c0c:	85 3f       	cpi	r24, 0xF5	; 245
    7c0e:	92 07       	cpc	r25, r18
    7c10:	08 f4       	brcc	.+2      	; 0x7c14 <__vector_5+0x1ca>
    7c12:	4e c0       	rjmp	.+156    	; 0x7cb0 <__vector_5+0x266>
    7c14:	80 91 de 00 	lds	r24, 0x00DE
    7c18:	90 91 df 00 	lds	r25, 0x00DF
    7c1c:	22 e0       	ldi	r18, 0x02	; 2
    7c1e:	8c 3b       	cpi	r24, 0xBC	; 188
    7c20:	92 07       	cpc	r25, r18
    7c22:	08 f0       	brcs	.+2      	; 0x7c26 <__vector_5+0x1dc>
    7c24:	45 c0       	rjmp	.+138    	; 0x7cb0 <__vector_5+0x266>
    7c26:	80 91 97 00 	lds	r24, 0x0097
    7c2a:	82 30       	cpi	r24, 0x02	; 2
    7c2c:	09 f4       	brne	.+2      	; 0x7c30 <__vector_5+0x1e6>
    7c2e:	40 c0       	rjmp	.+128    	; 0x7cb0 <__vector_5+0x266>
               {

                 OCR0 = pgm_read_byte(&ahmed_samples[sample++]);
    7c30:	ac e5       	ldi	r26, 0x5C	; 92
    7c32:	b0 e0       	ldi	r27, 0x00	; 0
    7c34:	20 91 9a 00 	lds	r18, 0x009A
    7c38:	30 91 9b 00 	lds	r19, 0x009B
    7c3c:	c9 01       	movw	r24, r18
    7c3e:	8d 59       	subi	r24, 0x9D	; 157
    7c40:	99 4c       	sbci	r25, 0xC9	; 201
    7c42:	9e 83       	std	Y+6, r25	; 0x06
    7c44:	8d 83       	std	Y+5, r24	; 0x05
    7c46:	c9 01       	movw	r24, r18
    7c48:	01 96       	adiw	r24, 0x01	; 1
    7c4a:	90 93 9b 00 	sts	0x009B, r25
    7c4e:	80 93 9a 00 	sts	0x009A, r24
    7c52:	ed 81       	ldd	r30, Y+5	; 0x05
    7c54:	fe 81       	ldd	r31, Y+6	; 0x06
    7c56:	84 91       	lpm	r24, Z+
    7c58:	8c 83       	std	Y+4, r24	; 0x04
    7c5a:	8c 81       	ldd	r24, Y+4	; 0x04
    7c5c:	8c 93       	st	X, r24
                   if(sample>ahmed_length)
    7c5e:	80 91 9a 00 	lds	r24, 0x009A
    7c62:	90 91 9b 00 	lds	r25, 0x009B
    7c66:	9c 01       	movw	r18, r24
    7c68:	40 e0       	ldi	r20, 0x00	; 0
    7c6a:	50 e0       	ldi	r21, 0x00	; 0
    7c6c:	80 91 86 00 	lds	r24, 0x0086
    7c70:	90 91 87 00 	lds	r25, 0x0087
    7c74:	a0 91 88 00 	lds	r26, 0x0088
    7c78:	b0 91 89 00 	lds	r27, 0x0089
    7c7c:	82 17       	cp	r24, r18
    7c7e:	93 07       	cpc	r25, r19
    7c80:	a4 07       	cpc	r26, r20
    7c82:	b5 07       	cpc	r27, r21
    7c84:	0c f0       	brlt	.+2      	; 0x7c88 <__vector_5+0x23e>
    7c86:	64 c0       	rjmp	.+200    	; 0x7d50 <__vector_5+0x306>
                  	 {
               	     Lcd_voidWriteCmd(0b00000001);
    7c88:	81 e0       	ldi	r24, 0x01	; 1
    7c8a:	0e 94 60 3a 	call	0x74c0	; 0x74c0 <Lcd_voidWriteCmd>
               		Lcd_voidWriteCmd(0b10000100);
    7c8e:	84 e8       	ldi	r24, 0x84	; 132
    7c90:	0e 94 60 3a 	call	0x74c0	; 0x74c0 <Lcd_voidWriteCmd>
                	 EEPROM_GetData(64);
    7c94:	80 e4       	ldi	r24, 0x40	; 64
    7c96:	0e 94 f1 38 	call	0x71e2	; 0x71e2 <EEPROM_GetData>
                  	 sample=0;
    7c9a:	10 92 9b 00 	sts	0x009B, r1
    7c9e:	10 92 9a 00 	sts	0x009A, r1
                  	 f=2;
    7ca2:	82 e0       	ldi	r24, 0x02	; 2
    7ca4:	80 93 97 00 	sts	0x0097, r24
                  	 W=1;
    7ca8:	81 e0       	ldi	r24, 0x01	; 1
    7caa:	80 93 96 00 	sts	0x0096, r24
    7cae:	50 c0       	rjmp	.+160    	; 0x7d50 <__vector_5+0x306>
//                  	 {
//                  	 sample=0;
//                  	 f=4;
//                  	 }
//               }
             else if( (Ch2Data < 500) && (data>700) && (f!=0) )
    7cb0:	80 91 dc 00 	lds	r24, 0x00DC
    7cb4:	90 91 dd 00 	lds	r25, 0x00DD
    7cb8:	21 e0       	ldi	r18, 0x01	; 1
    7cba:	84 3f       	cpi	r24, 0xF4	; 244
    7cbc:	92 07       	cpc	r25, r18
    7cbe:	08 f0       	brcs	.+2      	; 0x7cc2 <__vector_5+0x278>
    7cc0:	47 c0       	rjmp	.+142    	; 0x7d50 <__vector_5+0x306>
    7cc2:	80 91 de 00 	lds	r24, 0x00DE
    7cc6:	90 91 df 00 	lds	r25, 0x00DF
    7cca:	22 e0       	ldi	r18, 0x02	; 2
    7ccc:	8d 3b       	cpi	r24, 0xBD	; 189
    7cce:	92 07       	cpc	r25, r18
    7cd0:	08 f4       	brcc	.+2      	; 0x7cd4 <__vector_5+0x28a>
    7cd2:	3e c0       	rjmp	.+124    	; 0x7d50 <__vector_5+0x306>
    7cd4:	80 91 97 00 	lds	r24, 0x0097
    7cd8:	88 23       	and	r24, r24
    7cda:	d1 f1       	breq	.+116    	; 0x7d50 <__vector_5+0x306>
               {
                 OCR0 = pgm_read_byte(&Thank_samples[sample++]);
    7cdc:	ac e5       	ldi	r26, 0x5C	; 92
    7cde:	b0 e0       	ldi	r27, 0x00	; 0
    7ce0:	20 91 9a 00 	lds	r18, 0x009A
    7ce4:	30 91 9b 00 	lds	r19, 0x009B
    7ce8:	c9 01       	movw	r24, r18
    7cea:	85 50       	subi	r24, 0x05	; 5
    7cec:	96 4b       	sbci	r25, 0xB6	; 182
    7cee:	9b 83       	std	Y+3, r25	; 0x03
    7cf0:	8a 83       	std	Y+2, r24	; 0x02
    7cf2:	c9 01       	movw	r24, r18
    7cf4:	01 96       	adiw	r24, 0x01	; 1
    7cf6:	90 93 9b 00 	sts	0x009B, r25
    7cfa:	80 93 9a 00 	sts	0x009A, r24
    7cfe:	ea 81       	ldd	r30, Y+2	; 0x02
    7d00:	fb 81       	ldd	r31, Y+3	; 0x03
    7d02:	84 91       	lpm	r24, Z+
    7d04:	89 83       	std	Y+1, r24	; 0x01
    7d06:	89 81       	ldd	r24, Y+1	; 0x01
    7d08:	8c 93       	st	X, r24
                   if(sample>Thank_length)
    7d0a:	80 91 9a 00 	lds	r24, 0x009A
    7d0e:	90 91 9b 00 	lds	r25, 0x009B
    7d12:	9c 01       	movw	r18, r24
    7d14:	40 e0       	ldi	r20, 0x00	; 0
    7d16:	50 e0       	ldi	r21, 0x00	; 0
    7d18:	80 91 8a 00 	lds	r24, 0x008A
    7d1c:	90 91 8b 00 	lds	r25, 0x008B
    7d20:	a0 91 8c 00 	lds	r26, 0x008C
    7d24:	b0 91 8d 00 	lds	r27, 0x008D
    7d28:	82 17       	cp	r24, r18
    7d2a:	93 07       	cpc	r25, r19
    7d2c:	a4 07       	cpc	r26, r20
    7d2e:	b5 07       	cpc	r27, r21
    7d30:	7c f4       	brge	.+30     	; 0x7d50 <__vector_5+0x306>
                  	 {
                     Lcd_voidWriteCmd(0b00000001);
    7d32:	81 e0       	ldi	r24, 0x01	; 1
    7d34:	0e 94 60 3a 	call	0x74c0	; 0x74c0 <Lcd_voidWriteCmd>
                 	 Lcd_voidWriteCmd(0b10000100);
    7d38:	84 e8       	ldi	r24, 0x84	; 132
    7d3a:	0e 94 60 3a 	call	0x74c0	; 0x74c0 <Lcd_voidWriteCmd>
                  	 sample=0;
    7d3e:	10 92 9b 00 	sts	0x009B, r1
    7d42:	10 92 9a 00 	sts	0x009A, r1
                  	 f=0;
    7d46:	10 92 97 00 	sts	0x0097, r1
                  	 W=1;
    7d4a:	81 e0       	ldi	r24, 0x01	; 1
    7d4c:	80 93 96 00 	sts	0x0096, r24
                  	 }
               }

            }
}
    7d50:	2c 96       	adiw	r28, 0x0c	; 12
    7d52:	de bf       	out	0x3e, r29	; 62
    7d54:	cd bf       	out	0x3d, r28	; 61
    7d56:	cf 91       	pop	r28
    7d58:	df 91       	pop	r29
    7d5a:	ff 91       	pop	r31
    7d5c:	ef 91       	pop	r30
    7d5e:	bf 91       	pop	r27
    7d60:	af 91       	pop	r26
    7d62:	9f 91       	pop	r25
    7d64:	8f 91       	pop	r24
    7d66:	7f 91       	pop	r23
    7d68:	6f 91       	pop	r22
    7d6a:	5f 91       	pop	r21
    7d6c:	4f 91       	pop	r20
    7d6e:	3f 91       	pop	r19
    7d70:	2f 91       	pop	r18
    7d72:	0f 90       	pop	r0
    7d74:	0f be       	out	0x3f, r0	; 63
    7d76:	0f 90       	pop	r0
    7d78:	1f 90       	pop	r1
    7d7a:	18 95       	reti

00007d7c <main>:
volatile u8 qwe[8][8];
volatile u16 data;
volatile u16 Ch2Data;
extern u8 W;
int main()
{
    7d7c:	df 93       	push	r29
    7d7e:	cf 93       	push	r28
    7d80:	cd b7       	in	r28, 0x3d	; 61
    7d82:	de b7       	in	r29, 0x3e	; 62
    7d84:	a1 97       	sbiw	r28, 0x21	; 33
    7d86:	0f b6       	in	r0, 0x3f	; 63
    7d88:	f8 94       	cli
    7d8a:	de bf       	out	0x3e, r29	; 62
    7d8c:	0f be       	out	0x3f, r0	; 63
    7d8e:	cd bf       	out	0x3d, r28	; 61
	u8 ch=0;
    7d90:	19 82       	std	Y+1, r1	; 0x01
	u8 Local_u8arr[]={7,6,5,4,3,2,1,0};
    7d92:	ce 01       	movw	r24, r28
    7d94:	02 96       	adiw	r24, 0x02	; 2
    7d96:	99 8f       	std	Y+25, r25	; 0x19
    7d98:	88 8f       	std	Y+24, r24	; 0x18
    7d9a:	ee e8       	ldi	r30, 0x8E	; 142
    7d9c:	f0 e0       	ldi	r31, 0x00	; 0
    7d9e:	fb 8f       	std	Y+27, r31	; 0x1b
    7da0:	ea 8f       	std	Y+26, r30	; 0x1a
    7da2:	f8 e0       	ldi	r31, 0x08	; 8
    7da4:	fc 8f       	std	Y+28, r31	; 0x1c
    7da6:	ea 8d       	ldd	r30, Y+26	; 0x1a
    7da8:	fb 8d       	ldd	r31, Y+27	; 0x1b
    7daa:	00 80       	ld	r0, Z
    7dac:	8a 8d       	ldd	r24, Y+26	; 0x1a
    7dae:	9b 8d       	ldd	r25, Y+27	; 0x1b
    7db0:	01 96       	adiw	r24, 0x01	; 1
    7db2:	9b 8f       	std	Y+27, r25	; 0x1b
    7db4:	8a 8f       	std	Y+26, r24	; 0x1a
    7db6:	e8 8d       	ldd	r30, Y+24	; 0x18
    7db8:	f9 8d       	ldd	r31, Y+25	; 0x19
    7dba:	00 82       	st	Z, r0
    7dbc:	88 8d       	ldd	r24, Y+24	; 0x18
    7dbe:	99 8d       	ldd	r25, Y+25	; 0x19
    7dc0:	01 96       	adiw	r24, 0x01	; 1
    7dc2:	99 8f       	std	Y+25, r25	; 0x19
    7dc4:	88 8f       	std	Y+24, r24	; 0x18
    7dc6:	9c 8d       	ldd	r25, Y+28	; 0x1c
    7dc8:	91 50       	subi	r25, 0x01	; 1
    7dca:	9c 8f       	std	Y+28, r25	; 0x1c
    7dcc:	ec 8d       	ldd	r30, Y+28	; 0x1c
    7dce:	ee 23       	and	r30, r30
    7dd0:	51 f7       	brne	.-44     	; 0x7da6 <main+0x2a>
	u8 Local_u8Thank[]="Thank you";
    7dd2:	ce 01       	movw	r24, r28
    7dd4:	0a 96       	adiw	r24, 0x0a	; 10
    7dd6:	9e 8f       	std	Y+30, r25	; 0x1e
    7dd8:	8d 8f       	std	Y+29, r24	; 0x1d
    7dda:	e0 e6       	ldi	r30, 0x60	; 96
    7ddc:	f0 e0       	ldi	r31, 0x00	; 0
    7dde:	f8 a3       	std	Y+32, r31	; 0x20
    7de0:	ef 8f       	std	Y+31, r30	; 0x1f
    7de2:	fa e0       	ldi	r31, 0x0A	; 10
    7de4:	f9 a3       	std	Y+33, r31	; 0x21
    7de6:	ef 8d       	ldd	r30, Y+31	; 0x1f
    7de8:	f8 a1       	ldd	r31, Y+32	; 0x20
    7dea:	00 80       	ld	r0, Z
    7dec:	8f 8d       	ldd	r24, Y+31	; 0x1f
    7dee:	98 a1       	ldd	r25, Y+32	; 0x20
    7df0:	01 96       	adiw	r24, 0x01	; 1
    7df2:	98 a3       	std	Y+32, r25	; 0x20
    7df4:	8f 8f       	std	Y+31, r24	; 0x1f
    7df6:	ed 8d       	ldd	r30, Y+29	; 0x1d
    7df8:	fe 8d       	ldd	r31, Y+30	; 0x1e
    7dfa:	00 82       	st	Z, r0
    7dfc:	8d 8d       	ldd	r24, Y+29	; 0x1d
    7dfe:	9e 8d       	ldd	r25, Y+30	; 0x1e
    7e00:	01 96       	adiw	r24, 0x01	; 1
    7e02:	9e 8f       	std	Y+30, r25	; 0x1e
    7e04:	8d 8f       	std	Y+29, r24	; 0x1d
    7e06:	99 a1       	ldd	r25, Y+33	; 0x21
    7e08:	91 50       	subi	r25, 0x01	; 1
    7e0a:	99 a3       	std	Y+33, r25	; 0x21
    7e0c:	e9 a1       	ldd	r30, Y+33	; 0x21
    7e0e:	ee 23       	and	r30, r30
    7e10:	51 f7       	brne	.-44     	; 0x7de6 <main+0x6a>
	u8 Local_u8IMT[]="IMT";
    7e12:	80 91 6a 00 	lds	r24, 0x006A
    7e16:	90 91 6b 00 	lds	r25, 0x006B
    7e1a:	a0 91 6c 00 	lds	r26, 0x006C
    7e1e:	b0 91 6d 00 	lds	r27, 0x006D
    7e22:	8c 8b       	std	Y+20, r24	; 0x14
    7e24:	9d 8b       	std	Y+21, r25	; 0x15
    7e26:	ae 8b       	std	Y+22, r26	; 0x16
    7e28:	bf 8b       	std	Y+23, r27	; 0x17
	SetPortDirection(PORT_D , 0xff);   //PORT D output for lcd data
    7e2a:	83 e0       	ldi	r24, 0x03	; 3
    7e2c:	6f ef       	ldi	r22, 0xFF	; 255
    7e2e:	0e 94 51 37 	call	0x6ea2	; 0x6ea2 <SetPortDirection>
	SetPortDirection(PORT_B,0x0f);    //for lcd control    and msb nibble is input for test
    7e32:	81 e0       	ldi	r24, 0x01	; 1
    7e34:	6f e0       	ldi	r22, 0x0F	; 15
    7e36:	0e 94 51 37 	call	0x6ea2	; 0x6ea2 <SetPortDirection>
	SetPortValue(PORT_B,0xf0);     //pull up resistance for thm msb nibble used in test
    7e3a:	81 e0       	ldi	r24, 0x01	; 1
    7e3c:	60 ef       	ldi	r22, 0xF0	; 240
    7e3e:	0e 94 6b 37 	call	0x6ed6	; 0x6ed6 <SetPortValue>
//	SetPinValue(PORT_D,6,1);      //pull up resistance
//	SetPinValue(PORT_D,7,1);      //pull up resistance

	Lcd_voidInit();       //initialize the lcd
    7e42:	0e 94 70 3b 	call	0x76e0	; 0x76e0 <Lcd_voidInit>
	ADC_init();                       // initialize the ADC
    7e46:	0e 94 fc 34 	call	0x69f8	; 0x69f8 <ADC_init>

	EEPROM_InsertData();                         //put data in eeprom
    7e4a:	0e 94 9f 37 	call	0x6f3e	; 0x6f3e <EEPROM_InsertData>

	pwm_init();
    7e4e:	0e 94 e2 3c 	call	0x79c4	; 0x79c4 <pwm_init>

while(1)

{

	if(ch==0)           //multiplexe between channel 0 and 1
    7e52:	89 81       	ldd	r24, Y+1	; 0x01
    7e54:	88 23       	and	r24, r24
    7e56:	71 f4       	brne	.+28     	; 0x7e74 <main+0xf8>
	{
	ADC_SelcetChannel(0);
    7e58:	80 e0       	ldi	r24, 0x00	; 0
    7e5a:	0e 94 50 35 	call	0x6aa0	; 0x6aa0 <ADC_SelcetChannel>
	ADC_StartConversion();         //sart conversion
    7e5e:	0e 94 6f 35 	call	0x6ade	; 0x6ade <ADC_StartConversion>
	data=ADC_ReadData();           //read the conversion value
    7e62:	0e 94 7d 35 	call	0x6afa	; 0x6afa <ADC_ReadData>
    7e66:	90 93 df 00 	sts	0x00DF, r25
    7e6a:	80 93 de 00 	sts	0x00DE, r24
	ch=1;               //the next time take from the second channel
    7e6e:	81 e0       	ldi	r24, 0x01	; 1
    7e70:	89 83       	std	Y+1, r24	; 0x01
    7e72:	0f c0       	rjmp	.+30     	; 0x7e92 <main+0x116>
	}
	else if(ch==1)
    7e74:	89 81       	ldd	r24, Y+1	; 0x01
    7e76:	81 30       	cpi	r24, 0x01	; 1
    7e78:	61 f4       	brne	.+24     	; 0x7e92 <main+0x116>
	{
		ADC_SelcetChannel(1);
    7e7a:	81 e0       	ldi	r24, 0x01	; 1
    7e7c:	0e 94 50 35 	call	0x6aa0	; 0x6aa0 <ADC_SelcetChannel>
		ADC_StartConversion();         //sart conversion
    7e80:	0e 94 6f 35 	call	0x6ade	; 0x6ade <ADC_StartConversion>
		Ch2Data=ADC_ReadData();
    7e84:	0e 94 7d 35 	call	0x6afa	; 0x6afa <ADC_ReadData>
    7e88:	90 93 dd 00 	sts	0x00DD, r25
    7e8c:	80 93 dc 00 	sts	0x00DC, r24
		ch=0;
    7e90:	19 82       	std	Y+1, r1	; 0x01
// 	Lcd_voidWriteCmd(0b10001000);          //but curser int the specific place
//  	Lcd_voidWriteData( (data/100)+48 );
// 	Lcd_voidWriteData( ((data/10)%10)+48 );
// 	Lcd_voidWriteData( (data%10)+48 );

	   if(W==1)
    7e92:	80 91 96 00 	lds	r24, 0x0096
    7e96:	81 30       	cpi	r24, 0x01	; 1
    7e98:	e1 f6       	brne	.-72     	; 0x7e52 <main+0xd6>
	    {
		 DrawLitters();
    7e9a:	0e 94 bc 35 	call	0x6b78	; 0x6b78 <DrawLitters>
	    if(Ch2Data>500)
    7e9e:	80 91 dc 00 	lds	r24, 0x00DC
    7ea2:	90 91 dd 00 	lds	r25, 0x00DD
    7ea6:	f1 e0       	ldi	r31, 0x01	; 1
    7ea8:	85 3f       	cpi	r24, 0xF5	; 245
    7eaa:	9f 07       	cpc	r25, r31
    7eac:	28 f0       	brcs	.+10     	; 0x7eb8 <main+0x13c>
	     {
		  Lcd_voidWriteSentince(Local_u8arr);
    7eae:	ce 01       	movw	r24, r28
    7eb0:	02 96       	adiw	r24, 0x02	; 2
    7eb2:	0e 94 06 39 	call	0x720c	; 0x720c <Lcd_voidWriteSentince>
    7eb6:	1d c0       	rjmp	.+58     	; 0x7ef2 <main+0x176>
	     }
	    else if(data>700)
    7eb8:	80 91 de 00 	lds	r24, 0x00DE
    7ebc:	90 91 df 00 	lds	r25, 0x00DF
    7ec0:	22 e0       	ldi	r18, 0x02	; 2
    7ec2:	8d 3b       	cpi	r24, 0xBD	; 189
    7ec4:	92 07       	cpc	r25, r18
    7ec6:	28 f0       	brcs	.+10     	; 0x7ed2 <main+0x156>
	     {
	       Lcd_voidWriteSentinceAscii(Local_u8Thank);
    7ec8:	ce 01       	movw	r24, r28
    7eca:	0a 96       	adiw	r24, 0x0a	; 10
    7ecc:	0e 94 27 39 	call	0x724e	; 0x724e <Lcd_voidWriteSentinceAscii>
    7ed0:	10 c0       	rjmp	.+32     	; 0x7ef2 <main+0x176>
	     }
	    else if(data <700)
    7ed2:	80 91 de 00 	lds	r24, 0x00DE
    7ed6:	90 91 df 00 	lds	r25, 0x00DF
    7eda:	e2 e0       	ldi	r30, 0x02	; 2
    7edc:	8c 3b       	cpi	r24, 0xBC	; 188
    7ede:	9e 07       	cpc	r25, r30
    7ee0:	40 f4       	brcc	.+16     	; 0x7ef2 <main+0x176>
	     {
	       Lcd_voidWriteSentinceAscii(Local_u8IMT);
    7ee2:	ce 01       	movw	r24, r28
    7ee4:	44 96       	adiw	r24, 0x14	; 20
    7ee6:	0e 94 27 39 	call	0x724e	; 0x724e <Lcd_voidWriteSentinceAscii>
	       Lcd_voidWriteSentince(Local_u8arr);
    7eea:	ce 01       	movw	r24, r28
    7eec:	02 96       	adiw	r24, 0x02	; 2
    7eee:	0e 94 06 39 	call	0x720c	; 0x720c <Lcd_voidWriteSentince>
	     }
	     W=0;
    7ef2:	10 92 96 00 	sts	0x0096, r1
    7ef6:	ad cf       	rjmp	.-166    	; 0x7e52 <main+0xd6>

00007ef8 <__prologue_saves__>:
    7ef8:	2f 92       	push	r2
    7efa:	3f 92       	push	r3
    7efc:	4f 92       	push	r4
    7efe:	5f 92       	push	r5
    7f00:	6f 92       	push	r6
    7f02:	7f 92       	push	r7
    7f04:	8f 92       	push	r8
    7f06:	9f 92       	push	r9
    7f08:	af 92       	push	r10
    7f0a:	bf 92       	push	r11
    7f0c:	cf 92       	push	r12
    7f0e:	df 92       	push	r13
    7f10:	ef 92       	push	r14
    7f12:	ff 92       	push	r15
    7f14:	0f 93       	push	r16
    7f16:	1f 93       	push	r17
    7f18:	cf 93       	push	r28
    7f1a:	df 93       	push	r29
    7f1c:	cd b7       	in	r28, 0x3d	; 61
    7f1e:	de b7       	in	r29, 0x3e	; 62
    7f20:	ca 1b       	sub	r28, r26
    7f22:	db 0b       	sbc	r29, r27
    7f24:	0f b6       	in	r0, 0x3f	; 63
    7f26:	f8 94       	cli
    7f28:	de bf       	out	0x3e, r29	; 62
    7f2a:	0f be       	out	0x3f, r0	; 63
    7f2c:	cd bf       	out	0x3d, r28	; 61
    7f2e:	09 94       	ijmp

00007f30 <__epilogue_restores__>:
    7f30:	2a 88       	ldd	r2, Y+18	; 0x12
    7f32:	39 88       	ldd	r3, Y+17	; 0x11
    7f34:	48 88       	ldd	r4, Y+16	; 0x10
    7f36:	5f 84       	ldd	r5, Y+15	; 0x0f
    7f38:	6e 84       	ldd	r6, Y+14	; 0x0e
    7f3a:	7d 84       	ldd	r7, Y+13	; 0x0d
    7f3c:	8c 84       	ldd	r8, Y+12	; 0x0c
    7f3e:	9b 84       	ldd	r9, Y+11	; 0x0b
    7f40:	aa 84       	ldd	r10, Y+10	; 0x0a
    7f42:	b9 84       	ldd	r11, Y+9	; 0x09
    7f44:	c8 84       	ldd	r12, Y+8	; 0x08
    7f46:	df 80       	ldd	r13, Y+7	; 0x07
    7f48:	ee 80       	ldd	r14, Y+6	; 0x06
    7f4a:	fd 80       	ldd	r15, Y+5	; 0x05
    7f4c:	0c 81       	ldd	r16, Y+4	; 0x04
    7f4e:	1b 81       	ldd	r17, Y+3	; 0x03
    7f50:	aa 81       	ldd	r26, Y+2	; 0x02
    7f52:	b9 81       	ldd	r27, Y+1	; 0x01
    7f54:	ce 0f       	add	r28, r30
    7f56:	d1 1d       	adc	r29, r1
    7f58:	0f b6       	in	r0, 0x3f	; 63
    7f5a:	f8 94       	cli
    7f5c:	de bf       	out	0x3e, r29	; 62
    7f5e:	0f be       	out	0x3f, r0	; 63
    7f60:	cd bf       	out	0x3d, r28	; 61
    7f62:	ed 01       	movw	r28, r26
    7f64:	08 95       	ret

00007f66 <__eerd_block_m32>:
    7f66:	dc 01       	movw	r26, r24
    7f68:	cb 01       	movw	r24, r22

00007f6a <__eerd_blraw_m32>:
    7f6a:	fc 01       	movw	r30, r24
    7f6c:	e1 99       	sbic	0x1c, 1	; 28
    7f6e:	fe cf       	rjmp	.-4      	; 0x7f6c <__eerd_blraw_m32+0x2>
    7f70:	06 c0       	rjmp	.+12     	; 0x7f7e <__eerd_blraw_m32+0x14>
    7f72:	ff bb       	out	0x1f, r31	; 31
    7f74:	ee bb       	out	0x1e, r30	; 30
    7f76:	e0 9a       	sbi	0x1c, 0	; 28
    7f78:	31 96       	adiw	r30, 0x01	; 1
    7f7a:	0d b2       	in	r0, 0x1d	; 29
    7f7c:	0d 92       	st	X+, r0
    7f7e:	41 50       	subi	r20, 0x01	; 1
    7f80:	50 40       	sbci	r21, 0x00	; 0
    7f82:	b8 f7       	brcc	.-18     	; 0x7f72 <__eerd_blraw_m32+0x8>
    7f84:	08 95       	ret

00007f86 <__eewr_block_m32>:
    7f86:	dc 01       	movw	r26, r24
    7f88:	cb 01       	movw	r24, r22
    7f8a:	03 c0       	rjmp	.+6      	; 0x7f92 <__eewr_block_m32+0xc>
    7f8c:	2d 91       	ld	r18, X+
    7f8e:	0e 94 ce 3f 	call	0x7f9c	; 0x7f9c <__eewr_r18_m32>
    7f92:	41 50       	subi	r20, 0x01	; 1
    7f94:	50 40       	sbci	r21, 0x00	; 0
    7f96:	d0 f7       	brcc	.-12     	; 0x7f8c <__eewr_block_m32+0x6>
    7f98:	08 95       	ret

00007f9a <__eewr_byte_m32>:
    7f9a:	26 2f       	mov	r18, r22

00007f9c <__eewr_r18_m32>:
    7f9c:	e1 99       	sbic	0x1c, 1	; 28
    7f9e:	fe cf       	rjmp	.-4      	; 0x7f9c <__eewr_r18_m32>
    7fa0:	9f bb       	out	0x1f, r25	; 31
    7fa2:	8e bb       	out	0x1e, r24	; 30
    7fa4:	2d bb       	out	0x1d, r18	; 29
    7fa6:	0f b6       	in	r0, 0x3f	; 63
    7fa8:	f8 94       	cli
    7faa:	e2 9a       	sbi	0x1c, 2	; 28
    7fac:	e1 9a       	sbi	0x1c, 1	; 28
    7fae:	0f be       	out	0x3f, r0	; 63
    7fb0:	01 96       	adiw	r24, 0x01	; 1
    7fb2:	08 95       	ret

00007fb4 <_exit>:
    7fb4:	f8 94       	cli

00007fb6 <__stop_program>:
    7fb6:	ff cf       	rjmp	.-2      	; 0x7fb6 <__stop_program>
